(dp1
S'0534879'
p2
(dp3
S'gross'
p4
(lp5
I1585687
asS'movie_count'
p6
I1
sS'movie_id'
p7
(lp8
I376869
asS'gross_sum'
p9
I1585687
sS'imdb_rating_avg'
p10
F7.7999999999999998
sS'imdb_rating_sum'
p11
F7.7999999999999998
sS'budget'
p12
(lp13
I10721568
asS'imdb_rating'
p14
(lp15
F7.7999999999999998
asS'gross_avg'
p16
F1585687
ssS'0142286'
p17
(dp18
g4
(lp19
I2423468
asg6
I1
sg7
(lp20
I293452
asg9
I2423468
sg10
F3.8999999999999999
sg11
F3.8999999999999999
sg12
(lp21
I15000000
asg14
(lp22
F3.8999999999999999
asg16
F2423468
ssS'0090386'
p23
(dp24
g4
(lp25
I77041381
asg6
I1
sg7
(lp26
I241259
asg9
I77041381
sg10
F6.2000000000000002
sg11
F6.2000000000000002
sg12
(lp27
I170000000
asg14
(lp28
F6.2000000000000002
asg16
F77041381
ssS'0078465'
p29
(dp30
g4
(lp31
I25269
asg6
I1
sg7
(lp32
I425720
asg9
I25269
sg10
F7
sg11
F7
sg12
(lp33
I0
asg14
(lp34
F7
asg16
F25269
ssS'3480983'
p35
(dp36
g4
(lp37
I71451
asg6
I1
sg7
(lp38
I393603
asg9
I71451
sg10
F6
sg11
F6
sg12
(lp39
I0
asg14
(lp40
F6
asg16
F71451
ssS'0645574'
p41
(dp42
g4
(lp43
I62279
asg6
I1
sg7
(lp44
I413782
asg9
I62279
sg10
F7.4000000000000004
sg11
F7.4000000000000004
sg12
(lp45
I0
asg14
(lp46
F7.4000000000000004
asg16
F62279
ssS'0829050'
p47
(dp48
g4
(lp49
I486295561
asg6
I1
sg7
(lp50
I427004
asg9
I486295561
sg10
F5.9000000000000004
sg11
F5.9000000000000004
sg12
(lp51
I0
asg14
(lp52
F5.9000000000000004
asg16
F486295561
ssS'0218289'
p53
(dp54
g4
(lp55
I13931
asg6
I1
sg7
(lp56
I291871
asg9
I13931
sg10
F4.7999999999999998
sg11
F4.7999999999999998
sg12
(lp57
I0
asg14
(lp58
F4.7999999999999998
asg16
F13931
ssS'0770005'
p59
(dp60
g4
(lp61
I3401155
asg6
I1
sg7
(lp62
I340611
asg9
I3401155
sg10
F6.9000000000000004
sg11
F6.9000000000000004
sg12
(lp63
I0
asg14
(lp64
F6.9000000000000004
asg16
F3401155
ssS'0551358'
p65
(dp66
g4
(lp67
I187145
asg6
I1
sg7
(lp68
I373476
asg9
I187145
sg10
F5.4000000000000004
sg11
F5.4000000000000004
sg12
(lp69
I0
asg14
(lp70
F5.4000000000000004
asg16
F187145
ssS'1625338'
p71
(dp72
g4
(lp73
I13099931
asg6
I1
sg7
(lp74
I391995
asg9
I13099931
sg10
F5.5
sg11
F5.5
sg12
(lp75
I5000000
asg14
(lp76
F5.5
asg16
F13099931
ssS'0275629'
p77
(dp78
g4
(lp79
I23083334
asg6
I1
sg7
(lp80
I279641
asg9
I23083334
sg10
F6.5999999999999996
sg11
F6.5999999999999996
sg12
(lp81
I35000000
asg14
(lp82
F6.5999999999999996
asg16
F23083334
ssS'1032521'
p83
(dp84
g4
(lp85
I4267218
asg6
I1
sg7
(lp86
I337154
asg9
I4267218
sg10
F6.2999999999999998
sg11
F6.2999999999999998
sg12
(lp87
I0
asg14
(lp88
F6.2999999999999998
asg16
F4267218
ssS'6702777'
p89
(dp90
g4
(lp91
I60289
asg6
I1
sg7
(lp92
I364540
asg9
I60289
sg10
F6.2999999999999998
sg11
F6.2999999999999998
sg12
(lp93
I1150118
asg14
(lp94
F6.2999999999999998
asg16
F60289
ssS'1026778'
p95
(dp96
g4
(lp97
I15436808
asg6
I1
sg7
(lp98
I325789
asg9
I15436808
sg10
F7.0999999999999996
sg11
F7.0999999999999996
sg12
(lp99
I25000000
asg14
(lp100
F7.0999999999999996
asg16
F15436808
ssS'1444412'
p101
(dp102
g4
(lp103
I14218
asg6
I1
sg7
(lp104
I292834
asg9
I14218
sg10
F4.7999999999999998
sg11
F4.7999999999999998
sg12
(lp105
I0
asg14
(lp106
F4.7999999999999998
asg16
F14218
ssS'0878756'
p107
(dp108
g4
(lp109
I4212494
asg6
I1
sg7
(lp110
I270010
asg9
I4212494
sg10
F6.0999999999999996
sg11
F6.0999999999999996
sg12
(lp111
I30000000
asg14
(lp112
F6.0999999999999996
asg16
F4212494
ssS'3215397'
p113
(dp114
g4
(lp115
I4210454
asg6
I1
sg7
(lp116
I347031
asg9
I4210454
sg10
F7
sg11
F7
sg12
(lp117
I3000000
asg14
(lp118
F7
asg16
F4210454
ssS'0005610'
p119
(dp120
g4
(lp121
I18137
asg6
I1
sg7
(lp122
I301339
asg9
I18137
sg10
F6.2999999999999998
sg11
F6.2999999999999998
sg12
(lp123
I0
asg14
(lp124
F6.2999999999999998
asg16
F18137
ssS'0930984'
p125
(dp126
g4
(lp127
I9033
asg6
I1
sg7
(lp128
I386040
asg9
I9033
sg10
F8.4000000000000004
sg11
F8.4000000000000004
sg12
(lp129
I0
asg14
(lp130
F8.4000000000000004
asg16
F9033
ssS'6174515'
p131
(dp132
g4
(lp133
I57759
asg6
I1
sg7
(lp134
I382217
asg9
I57759
sg10
F7.4000000000000004
sg11
F7.4000000000000004
sg12
(lp135
I0
asg14
(lp136
F7.4000000000000004
asg16
F57759
ssS'0601859'
p137
(dp138
g4
(lp139
I113257297
asg6
I1
sg7
(lp140
I376659
asg9
I113257297
sg10
F6.2000000000000002
sg11
F6.2000000000000002
sg12
(lp141
I20000000
asg14
(lp142
F6.2000000000000002
asg16
F113257297
ssS'0401195'
p143
(dp144
g4
(lp145
I181633
asg6
I1
sg7
(lp146
I406429
asg9
I181633
sg10
F4.7000000000000002
sg11
F4.7000000000000002
sg12
(lp147
I38000000
asg14
(lp148
F4.7000000000000002
asg16
F181633
ssS'3719393'
p149
(dp150
g4
(lp151
I36885
asg6
I1
sg7
(lp152
I332996
asg9
I36885
sg10
F6.9000000000000004
sg11
F6.9000000000000004
sg12
(lp153
I0
asg14
(lp154
F6.9000000000000004
asg16
F36885
ssS'0777881'
p155
(dp156
g4
(lp157
I66184051
asg6
I1
sg7
(lp158
I262504
asg9
I66184051
sg10
F5.7000000000000002
sg11
F5.7000000000000002
sg12
(lp159
I110000000
asg14
(lp160
F5.7000000000000002
asg16
F66184051
ssS'0232504'
p161
(dp162
g4
(lp163
I75526
asg6
I1
sg7
(lp164
I367206
asg9
I75526
sg10
F6.0999999999999996
sg11
F6.0999999999999996
sg12
(lp165
I0
asg14
(lp166
F6.0999999999999996
asg16
F75526
ssS'4819186'
p167
(dp168
g4
(lp169
I1087419
asg6
I1
sg7
(lp170
I392572
asg9
I1087419
sg10
F7.0999999999999996
sg11
F7.0999999999999996
sg12
(lp171
I1000000
asg14
(lp172
F7.0999999999999996
asg16
F1087419
ssS'1189755'
p173
(dp174
g4
(lp175
I4712792
asg6
I1
sg7
(lp176
I184341
asg9
I4712792
sg10
F6.5999999999999996
sg11
F6.5999999999999996
sg12
(lp177
I20000000
asg14
(lp178
F6.5999999999999996
asg16
F4712792
ssS'1732883'
p179
(dp180
g4
(lp181
I7162
asg6
I1
sg7
(lp182
I383208
asg9
I7162
sg10
F5.5
sg11
F5.5
sg12
(lp183
I0
asg14
(lp184
F5.5
asg16
F7162
ssS'0030417'
p185
(dp186
g4
(lp187
I1918403
asg6
I1
sg7
(lp188
I315011
asg9
I1918403
sg10
F6.7999999999999998
sg11
F6.7999999999999998
sg12
(lp189
I15000000
asg14
(lp190
F6.7999999999999998
asg16
F1918403
ssS'0999525'
p191
(dp192
g4
(lp193
I66680
asg6
I1
sg7
(lp194
I196359
asg9
I66680
sg10
F6.2999999999999998
sg11
F6.2999999999999998
sg12
(lp195
I0
asg14
(lp196
F6.2999999999999998
asg16
F66680
ssS'0438500'
p197
(dp198
g4
(lp199
I1598
asg6
I1
sg7
(lp200
I326256
asg9
I1598
sg10
F5.5
sg11
F5.5
sg12
(lp201
I0
asg14
(lp202
F5.5
asg16
F1598
ssS'0357453'
p203
(dp204
g4
(lp205
I60323786
asg6
I1
sg7
(lp206
I356305
asg9
I60323786
sg10
F6.2999999999999998
sg11
F6.2999999999999998
sg12
(lp207
I38000000
asg14
(lp208
F6.2999999999999998
asg16
F60323786
ssS'1068198'
p209
(dp210
g4
(lp211
I36386
asg6
I1
sg7
(lp212
I376263
asg9
I36386
sg10
F6.9000000000000004
sg11
F6.9000000000000004
sg12
(lp213
I1600000
asg14
(lp214
F6.9000000000000004
asg16
F36386
ssS'0482592'
p215
(dp216
g4
(lp217
I800012
asg6
I1
sg7
(lp218
I415214
asg9
I800012
sg10
F6.7999999999999998
sg11
F6.7999999999999998
sg12
(lp219
I0
asg14
(lp220
F6.7999999999999998
asg16
F800012
ssS'0497565'
p221
(dp222
g4
(lp223
I1023348
asg6
I1
sg7
(lp224
I407887
asg9
I1023348
sg10
F6.2000000000000002
sg11
F6.2000000000000002
sg12
(lp225
I0
asg14
(lp226
F6.2000000000000002
asg16
F1023348
ssS'1411972'
p227
(dp228
g4
(lp229
I21626
asg6
I1
sg7
(lp230
I408508
asg9
I21626
sg10
F7.2999999999999998
sg11
F7.2999999999999998
sg12
(lp231
I0
asg14
(lp232
F7.2999999999999998
asg16
F21626
ssS'1897108'
p233
(dp234
g4
(lp235
I4073489
asg6
I1
sg7
(lp236
I429002
asg9
I4073489
sg10
F7.4000000000000004
sg11
F7.4000000000000004
sg12
(lp237
I790
asg14
(lp238
F7.4000000000000004
asg16
F4073489
ssS'0446539'
p239
(dp240
g4
(lp241
I74712
asg6
I1
sg7
(lp242
I390584
asg9
I74712
sg10
F5.5999999999999996
sg11
F5.5999999999999996
sg12
(lp243
I0
asg14
(lp244
F5.5999999999999996
asg16
F74712
ssS'3173219'
p245
(dp246
g4
(lp247
I14073
asg6
I1
sg7
(lp248
I322548
asg9
I14073
sg10
F4.7999999999999998
sg11
F4.7999999999999998
sg12
(lp249
I0
asg14
(lp250
F4.7999999999999998
asg16
F14073
ssS'0772005'
p251
(dp252
g4
(lp253
I11271
asg6
I1
sg7
(lp254
I404945
asg9
I11271
sg10
F6.9000000000000004
sg11
F6.9000000000000004
sg12
(lp255
I0
asg14
(lp256
F6.9000000000000004
asg16
F11271
ssS'0275418'
p257
(dp258
g4
(lp259
I85999
asg6
I1
sg7
(lp260
I373348
asg9
I85999
sg10
F7.2000000000000002
sg11
F7.2000000000000002
sg12
(lp261
I0
asg14
(lp262
F7.2000000000000002
asg16
F85999
ssS'4824763'
p263
(dp264
g4
(lp265
I56245075
asg6
I1
sg7
(lp266
I296096
asg9
I56245075
sg10
F7.4000000000000004
sg11
F7.4000000000000004
sg12
(lp267
I20000000
asg14
(lp268
F7.4000000000000004
asg16
F56245075
ssS'5005991'
p269
(dp270
g4
(lp271
I19107
asg6
I1
sg7
(lp272
I428168
asg9
I19107
sg10
F6.5999999999999996
sg11
F6.5999999999999996
sg12
(lp273
I1
asg14
(lp274
F6.5999999999999996
asg16
F19107
ssS'0608936'
p275
(dp276
g4
(lp277
I6332
asg6
I1
sg7
(lp278
I347127
asg9
I6332
sg10
F4.7000000000000002
sg11
F4.7000000000000002
sg12
(lp279
I0
asg14
(lp280
F4.7000000000000002
asg16
F6332
ssS'1490123'
p281
(dp282
g4
(lp283
I102470008
asg6
I1
sg7
(lp284
I259693
asg9
I102470008
sg10
F7.4000000000000004
sg11
F7.4000000000000004
sg12
(lp285
I40000000
asg14
(lp286
F7.4000000000000004
asg16
F102470008
ssS'0000191'
p287
(dp288
g4
(lp289
I544098
asg6
I1
sg7
(lp290
I326285
asg9
I544098
sg10
F6.0999999999999996
sg11
F6.0999999999999996
sg12
(lp291
I0
asg14
(lp292
F6.0999999999999996
asg16
F544098
ssS'0518836'
p293
(dp294
g4
(lp295
I47695371
asg6
I1
sg7
(lp296
I334541
asg9
I47695371
sg10
F7.9000000000000004
sg11
F7.9000000000000004
sg12
(lp297
I8500000
asg14
(lp298
F7.9000000000000004
asg16
F47695371
ssS'2038376'
p299
(dp300
g4
(lp301
I255388
asg6
I1
sg7
(lp302
I407588
asg9
I255388
sg10
F7.5
sg11
F7.5
sg12
(lp303
I0
asg14
(lp304
F7.5
asg16
F255388
ssS'1291105'
p305
(dp306
g4
(lp307
I3740823
asg6
I1
sg7
(lp308
I258230
asg9
I3740823
sg10
F7.5
sg11
F7.5
sg12
(lp309
I43000000
asg14
(lp310
F7.5
asg16
F3740823
ssS'2035886'
p311
(dp312
g4
(lp313
I33258
asg6
I1
sg7
(lp314
I301875
asg9
I33258
sg10
F6.0999999999999996
sg11
F6.0999999999999996
sg12
(lp315
I0
asg14
(lp316
F6.0999999999999996
asg16
F33258
ssS'0138809'
p317
(dp318
g4
(lp319
I3237118
asg6
I1
sg7
(lp320
I369557
asg9
I3237118
sg10
F8
sg11
F8
sg12
(lp321
I4000000
asg14
(lp322
F8
asg16
F3237118
ssS'3109770'
p323
(dp324
g4
(lp325
I1801550
asg6
I1
sg7
(lp326
I388333
asg9
I1801550
sg10
F7.7999999999999998
sg11
F7.7999999999999998
sg12
(lp327
I0
asg14
(lp328
F7.7999999999999998
asg16
F1801550
ssS'0545382'
p329
(dp330
g4
(lp331
I9995
asg6
I1
sg7
(lp332
I406298
asg9
I9995
sg10
F6
sg11
F6
sg12
(lp333
I0
asg14
(lp334
F6
asg16
F9995
ssS'1099918'
p335
(dp336
g4
(lp337
I3220371
asg6
I1
sg7
(lp338
I313922
asg9
I3220371
sg10
F7
sg11
F7
sg12
(lp339
I5000000
asg14
(lp340
F7
asg16
F3220371
ssS'0831557'
p341
(dp342
g4
(lp343
I55455765
aI72679278
asg6
I2
sg7
(lp344
I325133
aI332210
asg9
I128135043
sg10
F6.3000000000000007
sg11
F12.600000000000001
sg12
(lp345
I35000000
aI70000000
asg14
(lp346
F5.7000000000000002
aF6.9000000000000004
asg16
F64067521.5
ssS'2035118'
p347
(dp348
g4
(lp349
I31900
asg6
I1
sg7
(lp350
I375012
asg9
I31900
sg10
F7
sg11
F7
sg12
(lp351
I0
asg14
(lp352
F7
asg16
F31900
ssS'1193346'
p353
(dp354
g4
(lp355
I2964845
asg6
I1
sg7
(lp356
I351339
asg9
I2964845
sg10
F7.2000000000000002
sg11
F7.2000000000000002
sg12
(lp357
I9000000
asg14
(lp358
F7.2000000000000002
asg16
F2964845
ssS'0284774'
p359
(dp360
g4
(lp361
I1065665
asg6
I1
sg7
(lp362
I364051
asg9
I1065665
sg10
F7.4000000000000004
sg11
F7.4000000000000004
sg12
(lp363
I6000000
asg14
(lp364
F7.4000000000000004
asg16
F1065665
ssS'0361135'
p365
(dp366
g4
(lp367
I388140
asg6
I1
sg7
(lp368
I374465
asg9
I388140
sg10
F7.0999999999999996
sg11
F7.0999999999999996
sg12
(lp369
I2100000
asg14
(lp370
F7.0999999999999996
asg16
F388140
ssS'1548607'
p371
(dp372
g4
(lp373
I3915251
asg6
I1
sg7
(lp374
I411020
asg9
I3915251
sg10
F7.2000000000000002
sg11
F7.2000000000000002
sg12
(lp375
I0
asg14
(lp376
F7.2000000000000002
asg16
F3915251
ssS'0522181'
p377
(dp378
g4
(lp379
I14393
asg6
I1
sg7
(lp380
I422178
asg9
I14393
sg10
F8.6999999999999993
sg11
F8.6999999999999993
sg12
(lp381
I0
asg14
(lp382
F8.6999999999999993
asg16
F14393
ssS'0855035'
p383
(dp384
g4
(lp385
I40598
asg6
I1
sg7
(lp386
I406992
asg9
I40598
sg10
F5.5999999999999996
sg11
F5.5999999999999996
sg12
(lp387
I0
asg14
(lp388
F5.5999999999999996
asg16
F40598
ssS'3593260'
p389
(dp390
g4
(lp391
I4073489
asg6
I1
sg7
(lp392
I429002
asg9
I4073489
sg10
F7.4000000000000004
sg11
F7.4000000000000004
sg12
(lp393
I790
asg14
(lp394
F7.4000000000000004
asg16
F4073489
ssS'8037968'
p395
(dp396
g4
(lp397
I59425
asg6
I1
sg7
(lp398
I385962
asg9
I59425
sg10
F6.7999999999999998
sg11
F6.7999999999999998
sg12
(lp399
I0
asg14
(lp400
F6.7999999999999998
asg16
F59425
ssS'1011775'
p401
(dp402
g4
(lp403
I190581
asg6
I1
sg7
(lp404
I372752
asg9
I190581
sg10
F8
sg11
F8
sg12
(lp405
I0
asg14
(lp406
F8
asg16
F190581
ssS'2433588'
p407
(dp408
g4
(lp409
I25358
asg6
I1
sg7
(lp410
I382054
asg9
I25358
sg10
F4.2999999999999998
sg11
F4.2999999999999998
sg12
(lp411
I0
asg14
(lp412
F4.2999999999999998
asg16
F25358
ssS'0590122'
p413
(dp414
g4
(lp415
I5664764
asg6
I1
sg7
(lp416
I342737
asg9
I5664764
sg10
F7.4000000000000004
sg11
F7.4000000000000004
sg12
(lp417
I7000000
asg14
(lp418
F7.4000000000000004
asg16
F5664764
ssS'3534176'
p419
(dp420
g4
(lp421
I7476
asg6
I1
sg7
(lp422
I382653
asg9
I7476
sg10
F7
sg11
F7
sg12
(lp423
I0
asg14
(lp424
F7
asg16
F7476
ssS'2499650'
p425
(dp426
g4
(lp427
I27383770
asg6
I1
sg7
(lp428
I430081
asg9
I27383770
sg10
F6.0999999999999996
sg11
F6.0999999999999996
sg12
(lp429
I0
asg14
(lp430
F6.0999999999999996
asg16
F27383770
ssS'0666388'
p431
(dp432
g4
(lp433
I621738
asg6
I1
sg7
(lp434
I402976
asg9
I621738
sg10
F5.5
sg11
F5.5
sg12
(lp435
I0
asg14
(lp436
F5.5
asg16
F621738
ssS'7729492'
p437
(dp438
g4
(lp439
I208611
asg6
I1
sg7
(lp440
I384547
asg9
I208611
sg10
F7.5999999999999996
sg11
F7.5999999999999996
sg12
(lp441
I0
asg14
(lp442
F7.5999999999999996
asg16
F208611
ssS'0008953'
p443
(dp444
g4
(lp445
I1646788
asg6
I1
sg7
(lp446
I297806
asg9
I1646788
sg10
F5.7000000000000002
sg11
F5.7000000000000002
sg12
(lp447
I13000000
asg14
(lp448
F5.7000000000000002
asg16
F1646788
ssS'2004165'
p449
(dp450
g4
(lp451
I11722
asg6
I1
sg7
(lp452
I353259
asg9
I11722
sg10
F7
sg11
F7
sg12
(lp453
I0
asg14
(lp454
F7
asg16
F11722
ssS'1840921'
p455
(dp456
g4
(lp457
I22121
asg6
I1
sg7
(lp458
I381418
asg9
I22121
sg10
F7.2999999999999998
sg11
F7.2999999999999998
sg12
(lp459
I0
asg14
(lp460
F7.2999999999999998
asg16
F22121
ssS'1066482'
p461
(dp462
g4
(lp463
I22121
asg6
I1
sg7
(lp464
I381418
asg9
I22121
sg10
F7.2999999999999998
sg11
F7.2999999999999998
sg12
(lp465
I0
asg14
(lp466
F7.2999999999999998
asg16
F22121
ssS'2158772'
p467
(dp468
g4
(lp469
I3712282
aI7710234
asg6
I2
sg7
(lp470
I245703
aI339419
asg9
I11422516
sg10
F6.8499999999999996
sg11
F13.699999999999999
sg12
(lp471
I18000000
aI9000000
asg14
(lp472
F6.7000000000000002
aF7
asg16
F5711258
ssS'4099092'
p473
(dp474
g4
(lp475
I144822
asg6
I1
sg7
(lp476
I323929
asg9
I144822
sg10
F7.0999999999999996
sg11
F7.0999999999999996
sg12
(lp477
I0
asg14
(lp478
F7.0999999999999996
asg16
F144822
ssS'0165995'
p479
(dp480
g4
(lp481
I8821329
asg6
I1
sg7
(lp482
I234004
asg9
I8821329
sg10
F5.5999999999999996
sg11
F5.5999999999999996
sg12
(lp483
I20000000
asg14
(lp484
F5.5999999999999996
asg16
F8821329
ssS'0418982'
p485
(dp486
g4
(lp487
I159305
asg6
I1
sg7
(lp488
I428929
asg9
I159305
sg10
F7.0999999999999996
sg11
F7.0999999999999996
sg12
(lp489
I0
asg14
(lp490
F7.0999999999999996
asg16
F159305
ssS'2147659'
p491
(dp492
g4
(lp493
I744046
asg6
I1
sg7
(lp494
I387026
asg9
I744046
sg10
F5.2999999999999998
sg11
F5.2999999999999998
sg12
(lp495
I0
asg14
(lp496
F5.2999999999999998
asg16
F744046
ssS'0950226'
p497
(dp498
g4
(lp499
I5083906
asg6
I1
sg7
(lp500
I332979
asg9
I5083906
sg10
F6.7999999999999998
sg11
F6.7999999999999998
sg12
(lp501
I6000000
asg14
(lp502
F6.7999999999999998
asg16
F5083906
ssS'0601619'
p503
(dp504
g4
(lp505
I149090
asg6
I1
sg7
(lp506
I421851
asg9
I149090
sg10
F6
sg11
F6
sg12
(lp507
I0
asg14
(lp508
F6
asg16
F149090
ssS'1475971'
p509
(dp510
g4
(lp511
I242867
asg6
I1
sg7
(lp512
I412924
asg9
I242867
sg10
F7.9000000000000004
sg11
F7.9000000000000004
sg12
(lp513
I0
asg14
(lp514
F7.9000000000000004
asg16
F242867
ssS'1534595'
p515
(dp516
g4
(lp517
I20591853
asg6
I1
sg7
(lp518
I342521
asg9
I20591853
sg10
F6.2999999999999998
sg11
F6.2999999999999998
sg12
(lp519
I15000000
asg14
(lp520
F6.2999999999999998
asg16
F20591853
ssS'3453283'
p521
(dp522
g4
(lp523
I4210454
asg6
I1
sg7
(lp524
I347031
asg9
I4210454
sg10
F7
sg11
F7
sg12
(lp525
I3000000
asg14
(lp526
F7
asg16
F4210454
ssS'1165576'
p527
(dp528
g4
(lp529
I230069
asg6
I1
sg7
(lp530
I299641
asg9
I230069
sg10
F5.4000000000000004
sg11
F5.4000000000000004
sg12
(lp531
I2500000
asg14
(lp532
F5.4000000000000004
asg16
F230069
ssS'0755158'
p533
(dp534
g4
(lp535
I702537
asg6
I1
sg7
(lp536
I373473
asg9
I702537
sg10
F6.7999999999999998
sg11
F6.7999999999999998
sg12
(lp537
I0
asg14
(lp538
F6.7999999999999998
asg16
F702537
ssS'2047334'
p539
(dp540
g4
(lp541
I13960394
asg6
I1
sg7
(lp542
I391305
asg9
I13960394
sg10
F8.0999999999999996
sg11
F8.0999999999999996
sg12
(lp543
I0
asg14
(lp544
F8.0999999999999996
asg16
F13960394
ssS'0143984'
p545
(dp546
g4
(lp547
I29747603
asg6
I1
sg7
(lp548
I335791
asg9
I29747603
sg10
F4.7999999999999998
sg11
F4.7999999999999998
sg12
(lp549
I0
asg14
(lp550
F4.7999999999999998
asg16
F29747603
ssS'0002700'
p551
(dp552
g4
(lp553
I54030051
asg6
I1
sg7
(lp554
I326423
asg9
I54030051
sg10
F5.9000000000000004
sg11
F5.9000000000000004
sg12
(lp555
I20
asg14
(lp556
F5.9000000000000004
asg16
F54030051
ssS'1793079'
p557
(dp558
g4
(lp559
I89217875
asg6
I1
sg7
(lp560
I300669
asg9
I89217875
sg10
F7.2000000000000002
sg11
F7.2000000000000002
sg12
(lp561
I9900000
asg14
(lp562
F7.2000000000000002
asg16
F89217875
ssS'2488143'
p563
(dp564
g4
(lp565
I2242
asg6
I1
sg7
(lp566
I415613
asg9
I2242
sg10
F7.4000000000000004
sg11
F7.4000000000000004
sg12
(lp567
I0
asg14
(lp568
F7.4000000000000004
asg16
F2242
ssS'2093933'
p569
(dp570
g4
(lp571
I15395
asg6
I1
sg7
(lp572
I397517
asg9
I15395
sg10
F6.0999999999999996
sg11
F6.0999999999999996
sg12
(lp573
I0
asg14
(lp574
F6.0999999999999996
asg16
F15395
ssS'1903006'
p575
(dp576
g4
(lp577
I2376479
asg6
I1
sg7
(lp578
I413543
asg9
I2376479
sg10
F7.7999999999999998
sg11
F7.7999999999999998
sg12
(lp579
I4300000
asg14
(lp580
F7.7999999999999998
asg16
F2376479
ssS'0970447'
p581
(dp582
g4
(lp583
I97685686
asg6
I1
sg7
(lp584
I223702
asg9
I97685686
sg10
F6.2999999999999998
sg11
F6.2999999999999998
sg12
(lp585
I19000000
asg14
(lp586
F6.2999999999999998
asg16
F97685686
ssS'1914992'
p587
(dp588
g4
(lp589
I25564
asg6
I1
sg7
(lp590
I340484
asg9
I25564
sg10
F6.2999999999999998
sg11
F6.2999999999999998
sg12
(lp591
I0
asg14
(lp592
F6.2999999999999998
asg16
F25564
ssS'0062614'
p593
(dp594
g4
(lp595
I700723
asg6
I1
sg7
(lp596
I425694
asg9
I700723
sg10
F8.5999999999999996
sg11
F8.5999999999999996
sg12
(lp597
I0
asg14
(lp598
F8.5999999999999996
asg16
F700723
ssS'0000709'
p599
(dp600
g4
(lp601
I40098064
asg6
I1
sg7
(lp602
I369885
asg9
I40098064
sg10
F7.0999999999999996
sg11
F7.0999999999999996
sg12
(lp603
I85000000
asg14
(lp604
F7.0999999999999996
asg16
F40098064
ssS'1831657'
p605
(dp606
g4
(lp607
I19033
asg6
I1
sg7
(lp608
I403857
asg9
I19033
sg10
F4.5
sg11
F4.5
sg12
(lp609
I0
asg14
(lp610
F4.5
asg16
F19033
ssS'1883257'
p611
(dp612
g4
(lp613
I939101
asg6
I1
sg7
(lp614
I351454
asg9
I939101
sg10
F7.2000000000000002
sg11
F7.2000000000000002
sg12
(lp615
I0
asg14
(lp616
F7.2000000000000002
asg16
F939101
ssS'2626095'
p617
(dp618
g4
(lp619
I78578
asg6
I1
sg7
(lp620
I409289
asg9
I78578
sg10
F5.2000000000000002
sg11
F5.2000000000000002
sg12
(lp621
I0
asg14
(lp622
F5.2000000000000002
asg16
F78578
ssS'3104562'
p623
(dp624
g4
(lp625
I49979
asg6
I1
sg7
(lp626
I245913
asg9
I49979
sg10
F7.2999999999999998
sg11
F7.2999999999999998
sg12
(lp627
I0
asg14
(lp628
F7.2999999999999998
asg16
F49979
ssS'0742941'
p629
(dp630
g4
(lp631
I120933
asg6
I1
sg7
(lp632
I377151
asg9
I120933
sg10
F6.7999999999999998
sg11
F6.7999999999999998
sg12
(lp633
I0
asg14
(lp634
F6.7999999999999998
asg16
F120933
ssS'0751648'
p635
(dp636
g4
(lp637
I408084349
asg6
I1
sg7
(lp638
I271110
asg9
I408084349
sg10
F7.9000000000000004
sg11
F7.9000000000000004
sg12
(lp639
I250000000
asg14
(lp640
F7.9000000000000004
asg16
F408084349
ssS'0318916'
p641
(dp642
g4
(lp643
I27569558
asg6
I1
sg7
(lp644
I300673
asg9
I27569558
sg10
F6.7999999999999998
sg11
F6.7999999999999998
sg12
(lp645
I80000000
asg14
(lp646
F6.7999999999999998
asg16
F27569558
ssS'0946734'
p647
(dp648
g4
(lp649
I126643061
aI234037575
asg6
I2
sg7
(lp650
I258489
aI259316
asg9
I360680636
sg10
F6.8499999999999996
sg11
F13.699999999999999
sg12
(lp651
I180000000
aI180000000
asg14
(lp652
F6.2999999999999998
aF7.4000000000000004
asg16
F180340318
ssS'0001814'
p653
(dp654
g4
(lp655
I20444
asg6
I1
sg7
(lp656
I291351
asg9
I20444
sg10
F5.9000000000000004
sg11
F5.9000000000000004
sg12
(lp657
I0
asg14
(lp658
F5.9000000000000004
asg16
F20444
ssS'0533284'
p659
(dp660
g4
(lp661
I27007844
asg6
I1
sg7
(lp662
I338766
asg9
I27007844
sg10
F7.7000000000000002
sg11
F7.7000000000000002
sg12
(lp663
I12000000
asg14
(lp664
F7.7000000000000002
asg16
F27007844
ssS'0169474'
p665
(dp666
g4
(lp667
I8239
asg6
I1
sg7
(lp668
I381058
asg9
I8239
sg10
F6.7000000000000002
sg11
F6.7000000000000002
sg12
(lp669
I0
asg14
(lp670
F6.7000000000000002
asg16
F8239
ssS'0330347'
p671
(dp672
g4
(lp673
I54767494
asg6
I1
sg7
(lp674
I384682
asg9
I54767494
sg10
F5.7999999999999998
sg11
F5.7999999999999998
sg12
(lp675
I45000000
asg14
(lp676
F5.7999999999999998
asg16
F54767494
ssS'0000142'
p677
(dp678
g4
(lp679
I125070033
asg6
I1
sg7
(lp680
I363676
asg9
I125070033
sg10
F7.5
sg11
F7.5
sg12
(lp681
I60000000
asg14
(lp682
F7.5
asg16
F125070033
ssS'1031639'
p683
(dp684
g4
(lp685
I48390190
asg6
I1
sg7
(lp686
I290595
asg9
I48390190
sg10
F6.0999999999999996
sg11
F6.0999999999999996
sg12
(lp687
I115000000
asg14
(lp688
F6.0999999999999996
asg16
F48390190
ssS'0000149'
p689
(dp690
g4
(lp691
I41012075
asg6
I1
sg7
(lp692
I303858
asg9
I41012075
sg10
F6.5
sg11
F6.5
sg12
(lp693
I27000000
asg14
(lp694
F6.5
asg16
F41012075
ssS'1818121'
p695
(dp696
g4
(lp697
I11528613
asg6
I1
sg7
(lp698
I375794
asg9
I11528613
sg10
F5.7000000000000002
sg11
F5.7000000000000002
sg12
(lp699
I0
asg14
(lp700
F5.7000000000000002
asg16
F11528613
ssS'0930261'
p701
(dp702
g4
(lp703
I248757044
asg6
I1
sg7
(lp704
I277834
asg9
I248757044
sg10
F7.7000000000000002
sg11
F7.7000000000000002
sg12
(lp705
I150000000
asg14
(lp706
F7.7000000000000002
asg16
F248757044
ssS'1436693'
p707
(dp708
g4
(lp709
I219401
asg6
I1
sg7
(lp710
I404579
asg9
I219401
sg10
F5.9000000000000004
sg11
F5.9000000000000004
sg12
(lp711
I0
asg14
(lp712
F5.9000000000000004
asg16
F219401
ssS'0000229'
p713
(dp714
g4
(lp715
I55483770
asg6
I1
sg7
(lp716
I267935
asg9
I55483770
sg10
F6.4000000000000004
sg11
F6.4000000000000004
sg12
(lp717
I140000000
asg14
(lp718
F6.4000000000000004
asg16
F55483770
ssS'1190816'
p719
(dp720
g4
(lp721
I613956
asg6
I1
sg7
(lp722
I373072
asg9
I613956
sg10
F7.5999999999999996
sg11
F7.5999999999999996
sg12
(lp723
I0
asg14
(lp724
F7.5999999999999996
asg16
F613956
ssS'0160840'
p725
(dp726
g4
(lp727
I65075540
asg6
I1
sg7
(lp728
I291805
asg9
I65075540
sg10
F6.5
sg11
F6.5
sg12
(lp729
I90000000
asg14
(lp730
F6.5
asg16
F65075540
ssS'2929021'
p731
(dp732
g4
(lp733
I63241
asg6
I1
sg7
(lp734
I376257
asg9
I63241
sg10
F7
sg11
F7
sg12
(lp735
I0
asg14
(lp736
F7
asg16
F63241
ssS'1488800'
p737
(dp738
g4
(lp739
I53647
asg6
I1
sg7
(lp740
I291356
asg9
I53647
sg10
F6
sg11
F6
sg12
(lp741
I0
asg14
(lp742
F6
asg16
F53647
ssS'0394280'
p743
(dp744
g4
(lp745
I19206207
asg6
I1
sg7
(lp746
I323677
asg9
I19206207
sg10
F7.0999999999999996
sg11
F7.0999999999999996
sg12
(lp747
I5000000
asg14
(lp748
F7.0999999999999996
asg16
F19206207
ssS'0424103'
p749
(dp750
g4
(lp751
I4264983
asg6
I1
sg7
(lp752
I393445
asg9
I4264983
sg10
F5.7999999999999998
sg11
F5.7999999999999998
sg12
(lp753
I0
asg14
(lp754
F5.7999999999999998
asg16
F4264983
ssS'0778343'
p755
(dp756
g4
(lp757
I355074
asg6
I1
sg7
(lp758
I373479
asg9
I355074
sg10
F7.4000000000000004
sg11
F7.4000000000000004
sg12
(lp759
I0
asg14
(lp760
F7.4000000000000004
asg16
F355074
ssS'1045937'
p761
(dp762
g4
(lp763
I56184
asg6
I1
sg7
(lp764
I382336
asg9
I56184
sg10
F7.5999999999999996
sg11
F7.5999999999999996
sg12
(lp765
I0
asg14
(lp766
F7.5999999999999996
asg16
F56184
ssS'2609807'
p767
(dp768
g4
(lp769
I14431633
asg6
I1
sg7
(lp770
I376660
asg9
I14431633
sg10
F7.4000000000000004
sg11
F7.4000000000000004
sg12
(lp771
I9000000
asg14
(lp772
F7.4000000000000004
asg16
F14431633
ssS'1639277'
p773
(dp774
g4
(lp775
I11686940
asg6
I1
sg7
(lp776
I351819
asg9
I11686940
sg10
F3.5
sg11
F3.5
sg12
(lp777
I20000000
asg14
(lp778
F3.5
asg16
F11686940
ssS'3687413'
p779
(dp780
g4
(lp781
I72791
asg6
I1
sg7
(lp782
I390296
asg9
I72791
sg10
F7.0999999999999996
sg11
F7.0999999999999996
sg12
(lp783
I0
asg14
(lp784
F7.0999999999999996
asg16
F72791
ssS'0401502'
p785
(dp786
g4
(lp787
I1186426
asg6
I1
sg7
(lp788
I279096
asg9
I1186426
sg10
F5.5999999999999996
sg11
F5.5999999999999996
sg12
(lp789
I50000
asg14
(lp790
F5.5999999999999996
asg16
F1186426
ssS'1823227'
p791
(dp792
g4
(lp793
I70950
asg6
I1
sg7
(lp794
I373339
asg9
I70950
sg10
F7.2000000000000002
sg11
F7.2000000000000002
sg12
(lp795
I0
asg14
(lp796
F7.2000000000000002
asg16
F70950
ssS'3954500'
p797
(dp798
g4
(lp799
I105036
asg6
I1
sg7
(lp800
I366099
asg9
I105036
sg10
F3.6000000000000001
sg11
F3.6000000000000001
sg12
(lp801
I0
asg14
(lp802
F3.6000000000000001
asg16
F105036
ssS'2355933'
p803
(dp804
g4
(lp805
I54647948
asg6
I1
sg7
(lp806
I121856
asg9
I54647948
sg10
F5.9000000000000004
sg11
F5.9000000000000004
sg12
(lp807
I125000000
asg14
(lp808
F5.9000000000000004
asg16
F54647948
ssS'0536632'
p809
(dp810
g4
(lp811
I24252420
asg6
I1
sg7
(lp812
I95610
asg9
I24252420
sg10
F6.5999999999999996
sg11
F6.5999999999999996
sg12
(lp813
I35000000
asg14
(lp814
F6.5999999999999996
asg16
F24252420
ssS'0878763'
p815
(dp816
g4
(lp817
I100014699
asg6
I1
sg7
(lp818
I274870
asg9
I100014699
sg10
F7
sg11
F7
sg12
(lp819
I110000000
asg14
(lp820
F7
asg16
F100014699
ssS'2207625'
p821
(dp822
g4
(lp823
I285930
asg6
I1
sg7
(lp824
I377273
asg9
I285930
sg10
F7.7000000000000002
sg11
F7.7000000000000002
sg12
(lp825
I762241
asg14
(lp826
F7.7000000000000002
asg16
F285930
ssS'0332950'
p827
(dp828
g4
(lp829
I1264339
asg6
I1
sg7
(lp830
I402672
asg9
I1264339
sg10
F6
sg11
F6
sg12
(lp831
I15050000
asg14
(lp832
F6
asg16
F1264339
ssS'0552474'
p833
(dp834
g4
(lp835
I71451
asg6
I1
sg7
(lp836
I393603
asg9
I71451
sg10
F6
sg11
F6
sg12
(lp837
I0
asg14
(lp838
F6
asg16
F71451
ssS'1938355'
p839
(dp840
g4
(lp841
I86800
asg6
I1
sg7
(lp842
I371463
asg9
I86800
sg10
F7.0999999999999996
sg11
F7.0999999999999996
sg12
(lp843
I0
asg14
(lp844
F7.0999999999999996
asg16
F86800
ssS'0248953'
p845
(dp846
g4
(lp847
I6208
asg6
I1
sg7
(lp848
I399231
asg9
I6208
sg10
F6.5
sg11
F6.5
sg12
(lp849
I0
asg14
(lp850
F6.5
asg16
F6208
ssS'0000318'
p851
(dp852
g4
(lp853
I87242834
asg6
I1
sg7
(lp854
I283366
asg9
I87242834
sg10
F6.7000000000000002
sg11
F6.7000000000000002
sg12
(lp855
I110000000
asg14
(lp856
F6.7000000000000002
asg16
F87242834
ssS'1794148'
p857
(dp858
g4
(lp859
I26409
asg6
I1
sg7
(lp860
I303854
asg9
I26409
sg10
F5.7999999999999998
sg11
F5.7999999999999998
sg12
(lp861
I0
asg14
(lp862
F5.7999999999999998
asg16
F26409
ssS'3795124'
p863
(dp864
g4
(lp865
I34249
asg6
I1
sg7
(lp866
I391581
asg9
I34249
sg10
F7.2999999999999998
sg11
F7.2999999999999998
sg12
(lp867
I0
asg14
(lp868
F7.2999999999999998
asg16
F34249
ssS'3821224'
p869
(dp870
g4
(lp871
I38578
asg6
I1
sg7
(lp872
I374440
asg9
I38578
sg10
F5.7000000000000002
sg11
F5.7000000000000002
sg12
(lp873
I0
asg14
(lp874
F5.7000000000000002
asg16
F38578
ssS'0609549'
p875
(dp876
g4
(lp877
I14904426
asg6
I1
sg7
(lp878
I331313
asg9
I14904426
sg10
F5.7999999999999998
sg11
F5.7999999999999998
sg12
(lp879
I40000000
asg14
(lp880
F5.7999999999999998
asg16
F14904426
ssS'2462311'
p881
(dp882
g4
(lp883
I13450
asg6
I1
sg7
(lp884
I376565
asg9
I13450
sg10
F6.4000000000000004
sg11
F6.4000000000000004
sg12
(lp885
I12823507
asg14
(lp886
F6.4000000000000004
asg16
F13450
ssS'2678319'
p887
(dp888
g4
(lp889
I1326999
asg6
I1
sg7
(lp890
I391779
asg9
I1326999
sg10
F5.2000000000000002
sg11
F5.2000000000000002
sg12
(lp891
I0
asg14
(lp892
F5.2000000000000002
asg16
F1326999
ssS'1676223'
p893
(dp894
g4
(lp895
I20431
asg6
I1
sg7
(lp896
I341012
asg9
I20431
sg10
F6.7000000000000002
sg11
F6.7000000000000002
sg12
(lp897
I0
asg14
(lp898
F6.7000000000000002
asg16
F20431
ssS'0001515'
p899
(dp900
g4
(lp901
I5777
asg6
I1
sg7
(lp902
I331393
asg9
I5777
sg10
F6.2000000000000002
sg11
F6.2000000000000002
sg12
(lp903
I0
asg14
(lp904
F6.2000000000000002
asg16
F5777
ssS'2414127'
p905
(dp906
g4
(lp907
I351840
asg6
I1
sg7
(lp908
I406042
asg9
I351840
sg10
F6.4000000000000004
sg11
F6.4000000000000004
sg12
(lp909
I0
asg14
(lp910
F6.4000000000000004
asg16
F351840
ssS'1108007'
p911
(dp912
g4
(lp913
I76233151
asg6
I1
sg7
(lp914
I294272
asg9
I76233151
sg10
F6.7999999999999998
sg11
F6.7999999999999998
sg12
(lp915
I65000000
asg14
(lp916
F6.7999999999999998
asg16
F76233151
ssS'3755041'
p917
(dp918
g4
(lp919
I8840
asg6
I1
sg7
(lp920
I367493
asg9
I8840
sg10
F7.7000000000000002
sg11
F7.7000000000000002
sg12
(lp921
I0
asg14
(lp922
F7.7000000000000002
asg16
F8840
ssS'7729495'
p923
(dp924
g4
(lp925
I208611
asg6
I1
sg7
(lp926
I384547
asg9
I208611
sg10
F7.5999999999999996
sg11
F7.5999999999999996
sg12
(lp927
I0
asg14
(lp928
F7.5999999999999996
asg16
F208611
ssS'7729494'
p929
(dp930
g4
(lp931
I208611
asg6
I1
sg7
(lp932
I384547
asg9
I208611
sg10
F7.5999999999999996
sg11
F7.5999999999999996
sg12
(lp933
I0
asg14
(lp934
F7.5999999999999996
asg16
F208611
ssS'7729493'
p935
(dp936
g4
(lp937
I208611
asg6
I1
sg7
(lp938
I384547
asg9
I208611
sg10
F7.5999999999999996
sg11
F7.5999999999999996
sg12
(lp939
I0
asg14
(lp940
F7.5999999999999996
asg16
F208611
ssS'0661791'
p941
(dp942
g4
(lp943
I2006788
asg6
I1
sg7
(lp944
I290098
asg9
I2006788
sg10
F8.0999999999999996
sg11
F8.0999999999999996
sg12
(lp945
I8575000
asg14
(lp946
F8.0999999999999996
asg16
F2006788
ssS'2559080'
p947
(dp948
g4
(lp949
I200242
asg6
I1
sg7
(lp950
I336011
asg9
I200242
sg10
F5.7999999999999998
sg11
F5.7999999999999998
sg12
(lp951
I700000
asg14
(lp952
F5.7999999999999998
asg16
F200242
ssS'3424685'
p953
(dp954
g4
(lp955
I222565
asg6
I1
sg7
(lp956
I383354
asg9
I222565
sg10
F5
sg11
F5
sg12
(lp957
I0
asg14
(lp958
F5
asg16
F222565
ssS'3435683'
p959
(dp960
g4
(lp961
I1918403
asg6
I1
sg7
(lp962
I315011
asg9
I1918403
sg10
F6.7999999999999998
sg11
F6.7999999999999998
sg12
(lp963
I15000000
asg14
(lp964
F6.7999999999999998
asg16
F1918403
ssS'8524410'
p965
(dp966
g4
(lp967
I356255
asg6
I1
sg7
(lp968
I421742
asg9
I356255
sg10
F7.4000000000000004
sg11
F7.4000000000000004
sg12
(lp969
I0
asg14
(lp970
F7.4000000000000004
asg16
F356255
ssS'3652021'
p971
(dp972
g4
(lp973
I1605463
asg6
I1
sg7
(lp974
I347033
asg9
I1605463
sg10
F5.5999999999999996
sg11
F5.5999999999999996
sg12
(lp975
I0
asg14
(lp976
F5.5999999999999996
asg16
F1605463
ssS'1880561'
p977
(dp978
g4
(lp979
I20774575
asg6
I1
sg7
(lp980
I347126
asg9
I20774575
sg10
F4.2999999999999998
sg11
F4.2999999999999998
sg12
(lp981
I0
asg14
(lp982
F4.2999999999999998
asg16
F20774575
ssS'0000915'
p983
(dp984
g4
(lp985
I685780
asg6
I1
sg7
(lp986
I374461
asg9
I685780
sg10
F7.7000000000000002
sg11
F7.7000000000000002
sg12
(lp987
I8000000
asg14
(lp988
F7.7000000000000002
asg16
F685780
ssS'2349060'
p989
(dp990
g4
(lp991
I1124045
asg6
I1
sg7
(lp992
I275269
asg9
I1124045
sg10
F7.2000000000000002
sg11
F7.2000000000000002
sg12
(lp993
I5200000
asg14
(lp994
F7.2000000000000002
asg16
F1124045
ssS'0000916'
p995
(dp996
g4
(lp997
I61433527
asg6
I1
sg7
(lp998
I296524
asg9
I61433527
sg10
F7.2000000000000002
sg11
F7.2000000000000002
sg12
(lp999
I110000000
asg14
(lp1000
F7.2000000000000002
asg16
F61433527
ssS'1868917'
p1001
(dp1002
g4
(lp1003
I143528619
asg6
I1
sg7
(lp1004
I140300
asg9
I143528619
sg10
F7.2000000000000002
sg11
F7.2000000000000002
sg12
(lp1005
I145000000
asg14
(lp1006
F7.2000000000000002
asg16
F143528619
ssS'1251618'
p1007
(dp1008
g4
(lp1009
I23538
asg6
I1
sg7
(lp1010
I426546
asg9
I23538
sg10
F6.7999999999999998
sg11
F6.7999999999999998
sg12
(lp1011
I0
asg14
(lp1012
F6.7999999999999998
asg16
F23538
ssS'1676649'
p1013
(dp1014
g4
(lp1015
I15861566
asg6
I1
sg7
(lp1016
I339408
asg9
I15861566
sg10
F6.2999999999999998
sg11
F6.2999999999999998
sg12
(lp1017
I8500000
asg14
(lp1018
F6.2999999999999998
asg16
F15861566
ssS'1672246'
p1019
(dp1020
g4
(lp1021
I20431
asg6
I1
sg7
(lp1022
I341012
asg9
I20431
sg10
F6.7000000000000002
sg11
F6.7000000000000002
sg12
(lp1023
I0
asg14
(lp1024
F6.7000000000000002
asg16
F20431
ssS'1729237'
p1025
(dp1026
g4
(lp1027
I30169
asg6
I1
sg7
(lp1028
I352162
asg9
I30169
sg10
F6.7000000000000002
sg11
F6.7000000000000002
sg12
(lp1029
I0
asg14
(lp1030
F6.7000000000000002
asg16
F30169
ssS'0827830'
p1031
(dp1032
g4
(lp1033
I31886361
asg6
I1
sg7
(lp1034
I418693
asg9
I31886361
sg10
F8
sg11
F8
sg12
(lp1035
I0
asg14
(lp1036
F8
asg16
F31886361
ssS'1226290'
p1037
(dp1038
g4
(lp1039
I175702
asg6
I1
sg7
(lp1040
I408620
asg9
I175702
sg10
F6.5
sg11
F6.5
sg12
(lp1041
I0
asg14
(lp1042
F6.5
asg16
F175702
ssS'0624157'
p1043
(dp1044
g4
(lp1045
I23020
asg6
I1
sg7
(lp1046
I337874
asg9
I23020
sg10
F5.7999999999999998
sg11
F5.7999999999999998
sg12
(lp1047
I0
asg14
(lp1048
F5.7999999999999998
asg16
F23020
ssS'0610831'
p1049
(dp1050
g4
(lp1051
I35322
asg6
I1
sg7
(lp1052
I413730
asg9
I35322
sg10
F5.5999999999999996
sg11
F5.5999999999999996
sg12
(lp1053
I0
asg14
(lp1054
F5.5999999999999996
asg16
F35322
ssS'0585738'
p1055
(dp1056
g4
(lp1057
I18092
asg6
I1
sg7
(lp1058
I407803
asg9
I18092
sg10
F7.2999999999999998
sg11
F7.2999999999999998
sg12
(lp1059
I0
asg14
(lp1060
F7.2999999999999998
asg16
F18092
ssS'0456525'
p1061
(dp1062
g4
(lp1063
I18730891
asg6
I1
sg7
(lp1064
I424807
asg9
I18730891
sg10
F7.7999999999999998
sg11
F7.7999999999999998
sg12
(lp1065
I0
asg14
(lp1066
F7.7999999999999998
asg16
F18730891
ssS'1930956'
p1067
(dp1068
g4
(lp1069
I55511
asg6
I1
sg7
(lp1070
I373355
asg9
I55511
sg10
F6.5
sg11
F6.5
sg12
(lp1071
I0
asg14
(lp1072
F6.5
asg16
F55511
ssS'1264352'
p1073
(dp1074
g4
(lp1075
I3153157
asg6
I1
sg7
(lp1076
I205588
asg9
I3153157
sg10
F6.2000000000000002
sg11
F6.2000000000000002
sg12
(lp1077
I0
asg14
(lp1078
F6.2000000000000002
asg16
F3153157
ssS'1266897'
p1079
(dp1080
g4
(lp1081
I8074
asg6
I1
sg7
(lp1082
I364116
asg9
I8074
sg10
F5.2999999999999998
sg11
F5.2999999999999998
sg12
(lp1083
I0
asg14
(lp1084
F5.2999999999999998
asg16
F8074
ssS'1464314'
p1085
(dp1086
g4
(lp1087
I76931
asg6
I1
sg7
(lp1088
I449173
asg9
I76931
sg10
F7.5999999999999996
sg11
F7.5999999999999996
sg12
(lp1089
I0
asg14
(lp1090
F7.5999999999999996
asg16
F76931
ssS'0438461'
p1091
(dp1092
g4
(lp1093
I528799
asg6
I1
sg7
(lp1094
I376047
asg9
I528799
sg10
F5.4000000000000004
sg11
F5.4000000000000004
sg12
(lp1095
I0
asg14
(lp1096
F5.4000000000000004
asg16
F528799
ssS'0150802'
p1097
(dp1098
g4
(lp1099
I270329045
asg6
I1
sg7
(lp1100
I413198
asg9
I270329045
sg10
F6.4000000000000004
sg11
F6.4000000000000004
sg12
(lp1101
I32000000
asg14
(lp1102
F6.4000000000000004
asg16
F270329045
ssS'0381478'
p1103
(dp1104
g4
(lp1105
I17368022
asg6
I1
sg7
(lp1106
I213681
asg9
I17368022
sg10
F5.7999999999999998
sg11
F5.7999999999999998
sg12
(lp1107
I52000000
asg14
(lp1108
F5.7999999999999998
asg16
F17368022
ssS'4468159'
p1109
(dp1110
g4
(lp1111
I12544
asg6
I1
sg7
(lp1112
I419979
asg9
I12544
sg10
F5.2999999999999998
sg11
F5.2999999999999998
sg12
(lp1113
I0
asg14
(lp1114
F5.2999999999999998
asg16
F12544
ssS'3148857'
p1115
(dp1116
g4
(lp1117
I82778
asg6
I1
sg7
(lp1118
I415634
asg9
I82778
sg10
F6.9000000000000004
sg11
F6.9000000000000004
sg12
(lp1119
I0
asg14
(lp1120
F6.9000000000000004
asg16
F82778
ssS'0394793'
p1121
(dp1122
g4
(lp1123
I8277
asg6
I1
sg7
(lp1124
I324421
asg9
I8277
sg10
F7.0999999999999996
sg11
F7.0999999999999996
sg12
(lp1125
I0
asg14
(lp1126
F7.0999999999999996
asg16
F8277
ssS'0216459'
p1127
(dp1128
g4
(lp1129
I321910
asg6
I1
sg7
(lp1130
I380121
asg9
I321910
sg10
F4.7000000000000002
sg11
F4.7000000000000002
sg12
(lp1131
I0
asg14
(lp1132
F4.7000000000000002
asg16
F321910
ssS'3169656'
p1133
(dp1134
g4
(lp1135
I3755
asg6
I1
sg7
(lp1136
I420591
asg9
I3755
sg10
F7.7999999999999998
sg11
F7.7999999999999998
sg12
(lp1137
I0
asg14
(lp1138
F7.7999999999999998
asg16
F3755
ssS'0577647'
p1139
(dp1140
g4
(lp1141
I169345656
asg6
I1
sg7
(lp1142
I381284
asg9
I169345656
sg10
F7.7999999999999998
sg11
F7.7999999999999998
sg12
(lp1143
I25000000
asg14
(lp1144
F7.7999999999999998
asg16
F169345656
ssS'0004217'
p1145
(dp1146
g4
(lp1147
I568876
asg6
I1
sg7
(lp1148
I405757
asg9
I568876
sg10
F7
sg11
F7
sg12
(lp1149
I0
asg14
(lp1150
F7
asg16
F568876
ssS'0082526'
p1151
(dp1152
g4
(lp1153
I21256
asg6
I1
sg7
(lp1154
I257440
asg9
I21256
sg10
F5.5
sg11
F5.5
sg12
(lp1155
I0
asg14
(lp1156
F5.5
asg16
F21256
ssS'0510912'
p1157
(dp1158
g4
(lp1159
I158848340
asg6
I1
sg7
(lp1160
I188927
asg9
I158848340
sg10
F7.0999999999999996
sg11
F7.0999999999999996
sg12
(lp1161
I185000000
asg14
(lp1162
F7.0999999999999996
asg16
F158848340
ssS'2943514'
p1163
(dp1164
g4
(lp1165
I18051
asg6
I1
sg7
(lp1166
I373472
asg9
I18051
sg10
F7
sg11
F7
sg12
(lp1167
I0
asg14
(lp1168
F7
asg16
F18051
ssS'1403892'
p1169
(dp1170
g4
(lp1171
I744541
asg6
I1
sg7
(lp1172
I415636
asg9
I744541
sg10
F5.2000000000000002
sg11
F5.2000000000000002
sg12
(lp1173
I0
asg14
(lp1174
F5.2000000000000002
asg16
F744541
ssS'0870469'
p1175
(dp1176
g4
(lp1177
I72082998
asg6
I1
sg7
(lp1178
I333371
asg9
I72082998
sg10
F7.2000000000000002
sg11
F7.2000000000000002
sg12
(lp1179
I15000000
asg14
(lp1180
F7.2000000000000002
asg16
F72082998
ssS'0241622'
p1181
(dp1182
g4
(lp1183
I47258
asg6
I1
sg7
(lp1184
I371865
asg9
I47258
sg10
F6.0999999999999996
sg11
F6.0999999999999996
sg12
(lp1185
I0
asg14
(lp1186
F6.0999999999999996
asg16
F47258
ssS'1351912'
p1187
(dp1188
g4
(lp1189
I1499605
asg6
I1
sg7
(lp1190
I393765
asg9
I1499605
sg10
F5.9000000000000004
sg11
F5.9000000000000004
sg12
(lp1191
I0
asg14
(lp1192
F5.9000000000000004
asg16
F1499605
ssS'2422911'
p1193
(dp1194
g4
(lp1195
I10104
asg6
I1
sg7
(lp1196
I401123
asg9
I10104
sg10
F6.4000000000000004
sg11
F6.4000000000000004
sg12
(lp1197
I0
asg14
(lp1198
F6.4000000000000004
asg16
F10104
ssS'0448422'
p1199
(dp1200
g4
(lp1201
I57635
asg6
I1
sg7
(lp1202
I390396
asg9
I57635
sg10
F7.2000000000000002
sg11
F7.2000000000000002
sg12
(lp1203
I0
asg14
(lp1204
F7.2000000000000002
asg16
F57635
ssS'2704602'
p1205
(dp1206
g4
(lp1207
I6639
asg6
I1
sg7
(lp1208
I404073
asg9
I6639
sg10
F4.5999999999999996
sg11
F4.5999999999999996
sg12
(lp1209
I0
asg14
(lp1210
F4.5999999999999996
asg16
F6639
ssS'0572562'
p1211
(dp1212
g4
(lp1213
I10753574
asg6
I1
sg7
(lp1214
I257345
asg9
I10753574
sg10
F4.2999999999999998
sg11
F4.2999999999999998
sg12
(lp1215
I4000000
asg14
(lp1216
F4.2999999999999998
asg16
F10753574
ssS'0036537'
p1217
(dp1218
g4
(lp1219
I114959
asg6
I1
sg7
(lp1220
I364160
asg9
I114959
sg10
F5.2000000000000002
sg11
F5.2000000000000002
sg12
(lp1221
I0
asg14
(lp1222
F5.2000000000000002
asg16
F114959
ssS'1417392'
p1223
(dp1224
g4
(lp1225
I20777061
asg6
I1
sg7
(lp1226
I351211
asg9
I20777061
sg10
F5
sg11
F5
sg12
(lp1227
I5000000
asg14
(lp1228
F5
asg16
F20777061
ssS'6160424'
p1229
(dp1230
g4
(lp1231
I34343574
asg6
I1
sg7
(lp1232
I393544
asg9
I34343574
sg10
F9
sg11
F9
sg12
(lp1233
I3000
asg14
(lp1234
F9
asg16
F34343574
ssS'0426785'
p1235
(dp1236
g4
(lp1237
I166425
asg6
I1
sg7
(lp1238
I407655
asg9
I166425
sg10
F6
sg11
F6
sg12
(lp1239
I0
asg14
(lp1240
F6
asg16
F166425
ssS'0616880'
p1241
(dp1242
g4
(lp1243
I10999855
asg6
I1
sg7
(lp1244
I365997
asg9
I10999855
sg10
F7.7000000000000002
sg11
F7.7000000000000002
sg12
(lp1245
I0
asg14
(lp1246
F7.7000000000000002
asg16
F10999855
ssS'0679031'
p1247
(dp1248
g4
(lp1249
I4799774
asg6
I1
sg7
(lp1250
I241258
asg9
I4799774
sg10
F5.2000000000000002
sg11
F5.2000000000000002
sg12
(lp1251
I5000000
asg14
(lp1252
F5.2000000000000002
asg16
F4799774
ssS'0717678'
p1253
(dp1254
g4
(lp1255
I107509366
asg6
I1
sg7
(lp1256
I153518
asg9
I107509366
sg10
F6.2999999999999998
sg11
F6.2999999999999998
sg12
(lp1257
I73000000
asg14
(lp1258
F6.2999999999999998
asg16
F107509366
ssS'0043742'
p1259
(dp1260
g4
(lp1261
I325100054
asg6
I1
sg7
(lp1262
I297761
asg9
I325100054
sg10
F6.2000000000000002
sg11
F6.2000000000000002
sg12
(lp1263
I175000000
asg14
(lp1264
F6.2000000000000002
asg16
F325100054
ssS'0452772'
p1265
(dp1266
g4
(lp1267
I45270
asg6
I1
sg7
(lp1268
I376391
asg9
I45270
sg10
F7.9000000000000004
sg11
F7.9000000000000004
sg12
(lp1269
I0
asg14
(lp1270
F7.9000000000000004
asg16
F45270
ssS'0948145'
p1271
(dp1272
g4
(lp1273
I43955
asg6
I1
sg7
(lp1274
I394051
asg9
I43955
sg10
F5.2000000000000002
sg11
F5.2000000000000002
sg12
(lp1275
I0
asg14
(lp1276
F5.2000000000000002
asg16
F43955
ssS'3576329'
p1277
(dp1278
g4
(lp1279
I11287
asg6
I1
sg7
(lp1280
I339547
asg9
I11287
sg10
F4.7000000000000002
sg11
F4.7000000000000002
sg12
(lp1281
I0
asg14
(lp1282
F4.7000000000000002
asg16
F11287
ssS'3575912'
p1283
(dp1284
g4
(lp1285
I11287
asg6
I1
sg7
(lp1286
I339547
asg9
I11287
sg10
F4.7000000000000002
sg11
F4.7000000000000002
sg12
(lp1287
I0
asg14
(lp1288
F4.7000000000000002
asg16
F11287
ssS'1941669'
p1289
(dp1290
g4
(lp1291
I368384330
asg6
I1
sg7
(lp1292
I403052
asg9
I368384330
sg10
F6.7000000000000002
sg11
F6.7000000000000002
sg12
(lp1293
I0
asg14
(lp1294
F6.7000000000000002
asg16
F368384330
ssS'0006960'
p1295
(dp1296
g4
(lp1297
I3500605
asg6
I1
sg7
(lp1298
I376290
asg9
I3500605
sg10
F7.4000000000000004
sg11
F7.4000000000000004
sg12
(lp1299
I13000000
asg14
(lp1300
F7.4000000000000004
asg16
F3500605
ssS'1053530'
p1301
(dp1302
g4
(lp1303
I10663357
asg6
I1
sg7
(lp1304
I340666
asg9
I10663357
sg10
F7.5
sg11
F7.5
sg12
(lp1305
I22500000
asg14
(lp1306
F7.5
asg16
F10663357
ssS'1519639'
p1307
(dp1308
g4
(lp1309
I20555
asg6
I1
sg7
(lp1310
I333675
asg9
I20555
sg10
F6
sg11
F6
sg12
(lp1311
I0
asg14
(lp1312
F6
asg16
F20555
ssS'6681081'
p1313
(dp1314
g4
(lp1315
I532177324
asg6
I1
sg7
(lp1316
I431575
asg9
I532177324
sg10
F7.0999999999999996
sg11
F7.0999999999999996
sg12
(lp1317
I0
asg14
(lp1318
F7.0999999999999996
asg16
F532177324
ssS'0001774'
p1319
(dp1320
g4
(lp1321
I28848693
asg6
I1
sg7
(lp1322
I329833
asg9
I28848693
sg10
F4.7000000000000002
sg11
F4.7000000000000002
sg12
(lp1323
I50000000
asg14
(lp1324
F4.7000000000000002
asg16
F28848693
ssS'0001775'
p1325
(dp1326
g4
(lp1327
I14016568
asg6
I1
sg7
(lp1328
I296360
asg9
I14016568
sg10
F6.5
sg11
F6.5
sg12
(lp1329
I3000000
asg14
(lp1330
F6.5
asg16
F14016568
ssS'0176941'
p1331
(dp1332
g4
(lp1333
I10844
asg6
I1
sg7
(lp1334
I422231
asg9
I10844
sg10
F4.7999999999999998
sg11
F4.7999999999999998
sg12
(lp1335
I800
asg14
(lp1336
F4.7999999999999998
asg16
F10844
ssS'0197744'
p1337
(dp1338
g4
(lp1339
I157481
asg6
I1
sg7
(lp1340
I381275
asg9
I157481
sg10
F7.2999999999999998
sg11
F7.2999999999999998
sg12
(lp1341
I0
asg14
(lp1342
F7.2999999999999998
asg16
F157481
ssS'0625789'
p1343
(dp1344
g4
(lp1345
I26799
asg6
I1
sg7
(lp1346
I277710
asg9
I26799
sg10
F6.0999999999999996
sg11
F6.0999999999999996
sg12
(lp1347
I0
asg14
(lp1348
F6.0999999999999996
asg16
F26799
ssS'1429471'
p1349
(dp1350
g4
(lp1351
I55124043
asg6
I1
sg7
(lp1352
I332567
asg9
I55124043
sg10
F6.4000000000000004
sg11
F6.4000000000000004
sg12
(lp1353
I17000000
asg14
(lp1354
F6.4000000000000004
asg16
F55124043
ssS'1637785'
p1355
(dp1356
g4
(lp1357
I1055287
asg6
I1
sg7
(lp1358
I301348
asg9
I1055287
sg10
F6.4000000000000004
sg11
F6.4000000000000004
sg12
(lp1359
I0
asg14
(lp1360
F6.4000000000000004
asg16
F1055287
ssS'3033111'
p1361
(dp1362
g4
(lp1363
I857986
asg6
I1
sg7
(lp1364
I378092
asg9
I857986
sg10
F3.8999999999999999
sg11
F3.8999999999999999
sg12
(lp1365
I0
asg14
(lp1366
F3.8999999999999999
asg16
F857986
ssS'2432996'
p1367
(dp1368
g4
(lp1369
I18006
asg6
I1
sg7
(lp1370
I332665
asg9
I18006
sg10
F5.4000000000000004
sg11
F5.4000000000000004
sg12
(lp1371
I0
asg14
(lp1372
F5.4000000000000004
asg16
F18006
ssS'1671995'
p1373
(dp1374
g4
(lp1375
I45878
asg6
I1
sg7
(lp1376
I320413
asg9
I45878
sg10
F5.7000000000000002
sg11
F5.7000000000000002
sg12
(lp1377
I0
asg14
(lp1378
F5.7000000000000002
asg16
F45878
ssS'1898126'
p1379
(dp1380
g4
(lp1381
I4417667
asg6
I1
sg7
(lp1382
I356298
asg9
I4417667
sg10
F6.7999999999999998
sg11
F6.7999999999999998
sg12
(lp1383
I0
asg14
(lp1384
F6.7999999999999998
asg16
F4417667
ssS'0615780'
p1385
(dp1386
g4
(lp1387
I248757044
asg6
I1
sg7
(lp1388
I277834
asg9
I248757044
sg10
F7.7000000000000002
sg11
F7.7000000000000002
sg12
(lp1389
I150000000
asg14
(lp1390
F7.7000000000000002
asg16
F248757044
ssS'4361978'
p1391
(dp1392
g4
(lp1393
I1676108
asg6
I1
sg7
(lp1394
I376261
asg9
I1676108
sg10
F7.5999999999999996
sg11
F7.5999999999999996
sg12
(lp1395
I0
asg14
(lp1396
F7.5999999999999996
asg16
F1676108
ssS'0159147'
p1397
(dp1398
g4
(lp1399
I498000
asg6
I1
sg7
(lp1400
I399624
asg9
I498000
sg10
F3.7000000000000002
sg11
F3.7000000000000002
sg12
(lp1401
I0
asg14
(lp1402
F3.7000000000000002
asg16
F498000
ssS'0384825'
p1403
(dp1404
g4
(lp1405
I12639297
asg6
I1
sg7
(lp1406
I146198
asg9
I12639297
sg10
F6.2999999999999998
sg11
F6.2999999999999998
sg12
(lp1407
I28000000
asg14
(lp1408
F6.2999999999999998
asg16
F12639297
ssS'0929502'
p1409
(dp1410
g4
(lp1411
I20017
asg6
I1
sg7
(lp1412
I424388
asg9
I20017
sg10
F6
sg11
F6
sg12
(lp1413
I0
asg14
(lp1414
F6
asg16
F20017
ssS'1481959'
p1415
(dp1416
g4
(lp1417
I269980
asg6
I1
sg7
(lp1418
I390734
asg9
I269980
sg10
F6.9000000000000004
sg11
F6.9000000000000004
sg12
(lp1419
I0
asg14
(lp1420
F6.9000000000000004
asg16
F269980
ssS'0402493'
p1421
(dp1422
g4
(lp1423
I252
asg6
I1
sg7
(lp1424
I400411
asg9
I252
sg10
F3.7000000000000002
sg11
F3.7000000000000002
sg12
(lp1425
I0
asg14
(lp1426
F3.7000000000000002
asg16
F252
ssS'0161834'
p1427
(dp1428
g4
(lp1429
I12545979
asg6
I1
sg7
(lp1430
I283552
asg9
I12545979
sg10
F7.2000000000000002
sg11
F7.2000000000000002
sg12
(lp1431
I20000000
asg14
(lp1432
F7.2000000000000002
asg16
F12545979
ssS'1024677'
p1433
(dp1434
g4
(lp1435
I1016985
asg6
I1
sg7
(lp1436
I325346
asg9
I1016985
sg10
F6.5
sg11
F6.5
sg12
(lp1437
I0
asg14
(lp1438
F6.5
asg16
F1016985
ssS'1757777'
p1439
(dp1440
g4
(lp1441
I82051601
asg6
I1
sg7
(lp1442
I308531
asg9
I82051601
sg10
F6
sg11
F6
sg12
(lp1443
I135000000
asg14
(lp1444
F6
asg16
F82051601
ssS'6543532'
p1445
(dp1446
g4
(lp1447
I341268248
asg6
I1
sg7
(lp1448
I391711
asg9
I341268248
sg10
F8.5
sg11
F8.5
sg12
(lp1449
I0
asg14
(lp1450
F8.5
asg16
F341268248
ssS'0006854'
p1451
(dp1452
g4
(lp1453
I82703
asg6
I1
sg7
(lp1454
I404378
asg9
I82703
sg10
F7.4000000000000004
sg11
F7.4000000000000004
sg12
(lp1455
I8000000
asg14
(lp1456
F7.4000000000000004
asg16
F82703
ssS'0271815'
p1457
(dp1458
g4
(lp1459
I436798
asg6
I1
sg7
(lp1460
I400114
asg9
I436798
sg10
F7
sg11
F7
sg12
(lp1461
I0
asg14
(lp1462
F7
asg16
F436798
ssS'0000231'
p1463
(dp1464
g4
(lp1465
I21587519
asg6
I1
sg7
(lp1466
I302401
asg9
I21587519
sg10
F7.2999999999999998
sg11
F7.2999999999999998
sg12
(lp1467
I40000000
asg14
(lp1468
F7.2999999999999998
asg16
F21587519
ssS'0563243'
p1469
(dp1470
g4
(lp1471
I35593113
asg6
I1
sg7
(lp1472
I291870
asg9
I35593113
sg10
F6
sg11
F6
sg12
(lp1473
I11500000
asg14
(lp1474
F6
asg16
F35593113
ssS'1365879'
p1475
(dp1476
g4
(lp1477
I1176781
asg6
I1
sg7
(lp1478
I358923
asg9
I1176781
sg10
F7.7000000000000002
sg11
F7.7000000000000002
sg12
(lp1479
I0
asg14
(lp1480
F7.7000000000000002
asg16
F1176781
ssS'1938064'
p1481
(dp1482
g4
(lp1483
I9097072
asg6
I1
sg7
(lp1484
I377587
asg9
I9097072
sg10
F5.7999999999999998
sg11
F5.7999999999999998
sg12
(lp1485
I0
asg14
(lp1486
F5.7999999999999998
asg16
F9097072
ssS'0914134'
p1487
(dp1488
g4
(lp1489
I17782178
asg6
I1
sg7
(lp1490
I338964
asg9
I17782178
sg10
F5.5
sg11
F5.5
sg12
(lp1491
I26000000
asg14
(lp1492
F5.5
asg16
F17782178
ssS'1184488'
p1493
(dp1494
g4
(lp1495
I150191
asg6
I1
sg7
(lp1496
I398541
asg9
I150191
sg10
F6.7000000000000002
sg11
F6.7000000000000002
sg12
(lp1497
I0
asg14
(lp1498
F6.7000000000000002
asg16
F150191
ssS'0113819'
p1499
(dp1500
g4
(lp1501
I57527
asg6
I1
sg7
(lp1502
I257258
asg9
I57527
sg10
F6.7999999999999998
sg11
F6.7999999999999998
sg12
(lp1503
I0
asg14
(lp1504
F6.7999999999999998
asg16
F57527
ssS'1434034'
p1505
(dp1506
g4
(lp1507
I2394386
asg6
I1
sg7
(lp1508
I318226
asg9
I2394386
sg10
F6.2000000000000002
sg11
F6.2000000000000002
sg12
(lp1509
I10000000
asg14
(lp1510
F6.2000000000000002
asg16
F2394386
ssS'1224429'
p1511
(dp1512
g4
(lp1513
I981947
asg6
I1
sg7
(lp1514
I392344
asg9
I981947
sg10
F5.2000000000000002
sg11
F5.2000000000000002
sg12
(lp1515
I527784
asg14
(lp1516
F5.2000000000000002
asg16
F981947
ssS'0082366'
p1517
(dp1518
g4
(lp1519
I228894
asg6
I1
sg7
(lp1520
I374052
asg9
I228894
sg10
F6.2000000000000002
sg11
F6.2000000000000002
sg12
(lp1521
I0
asg14
(lp1522
F6.2000000000000002
asg16
F228894
ssS'1287649'
p1523
(dp1524
g4
(lp1525
I438207
asg6
I1
sg7
(lp1526
I391629
asg9
I438207
sg10
F5.2000000000000002
sg11
F5.2000000000000002
sg12
(lp1527
I0
asg14
(lp1528
F5.2000000000000002
asg16
F438207
ssS'3910931'
p1529
(dp1530
g4
(lp1531
I613956
asg6
I1
sg7
(lp1532
I373072
asg9
I613956
sg10
F7.5999999999999996
sg11
F7.5999999999999996
sg12
(lp1533
I0
asg14
(lp1534
F7.5999999999999996
asg16
F613956
ssS'2439708'
p1535
(dp1536
g4
(lp1537
I2607036
asg6
I1
sg7
(lp1538
I374173
asg9
I2607036
sg10
F7.7999999999999998
sg11
F7.7999999999999998
sg12
(lp1539
I0
asg14
(lp1540
F7.7999999999999998
asg16
F2607036
ssS'0225621'
p1541
(dp1542
g4
(lp1543
I890303
asg6
I1
sg7
(lp1544
I423628
asg9
I890303
sg10
F4.5999999999999996
sg11
F4.5999999999999996
sg12
(lp1545
I3500000
asg14
(lp1546
F4.5999999999999996
asg16
F890303
ssS'1427149'
p1547
(dp1548
g4
(lp1549
I527474
asg6
I1
sg7
(lp1550
I384573
asg9
I527474
sg10
F7.2000000000000002
sg11
F7.2000000000000002
sg12
(lp1551
I0
asg14
(lp1552
F7.2000000000000002
asg16
F527474
ssS'1761722'
p1553
(dp1554
g4
(lp1555
I3127773
aI1741889
asg6
I2
sg7
(lp1556
I317930
aI345912
asg9
I4869662
sg10
F5.2000000000000002
sg11
F10.4
sg12
(lp1557
I3000000
aI0
asg14
(lp1558
F4.7000000000000002
aF5.7000000000000002
asg16
F2434831
ssS'2021516'
p1559
(dp1560
g4
(lp1561
I46009673
asg6
I1
sg7
(lp1562
I316023
asg9
I46009673
sg10
F6
sg11
F6
sg12
(lp1563
I33000000
asg14
(lp1564
F6
asg16
F46009673
ssS'0806492'
p1565
(dp1566
g4
(lp1567
I23591043
asg6
I1
sg7
(lp1568
I339927
asg9
I23591043
sg10
F5.7999999999999998
sg11
F5.7999999999999998
sg12
(lp1569
I0
asg14
(lp1570
F5.7999999999999998
asg16
F23591043
ssS'0245112'
p1571
(dp1572
g4
(lp1573
I32919
asg6
I1
sg7
(lp1574
I351242
asg9
I32919
sg10
F6.0999999999999996
sg11
F6.0999999999999996
sg12
(lp1575
I0
asg14
(lp1576
F6.0999999999999996
asg16
F32919
ssS'6646390'
p1577
(dp1578
g4
(lp1579
I3169351
asg6
I1
sg7
(lp1580
I376530
asg9
I3169351
sg10
F7.5999999999999996
sg11
F7.5999999999999996
sg12
(lp1581
I0
asg14
(lp1582
F7.5999999999999996
asg16
F3169351
ssS'1103162'
p1583
(dp1584
g4
(lp1585
I91221830
aI23591043
asg6
I2
sg7
(lp1586
I323675
aI339927
asg9
I114812873
sg10
F5.8499999999999996
sg11
F11.699999999999999
sg12
(lp1587
I40000000
aI0
asg14
(lp1588
F5.9000000000000004
aF5.7999999999999998
asg16
F57406436.5
ssS'3619844'
p1589
(dp1590
g4
(lp1591
I779818
asg6
I1
sg7
(lp1592
I388403
asg9
I779818
sg10
F6.5999999999999996
sg11
F6.5999999999999996
sg12
(lp1593
I0
asg14
(lp1594
F6.5999999999999996
asg16
F779818
ssS'2708306'
p1595
(dp1596
g4
(lp1597
I18123
asg6
I1
sg7
(lp1598
I384289
asg9
I18123
sg10
F7.2999999999999998
sg11
F7.2999999999999998
sg12
(lp1599
I0
asg14
(lp1600
F7.2999999999999998
asg16
F18123
ssS'0635869'
p1601
(dp1602
g4
(lp1603
I316554
asg6
I1
sg7
(lp1604
I395938
asg9
I316554
sg10
F3.6000000000000001
sg11
F3.6000000000000001
sg12
(lp1605
I0
asg14
(lp1606
F3.6000000000000001
asg16
F316554
ssS'0524190'
p1607
(dp1608
g4
(lp1609
I113257297
asg6
I1
sg7
(lp1610
I376659
asg9
I113257297
sg10
F6.2000000000000002
sg11
F6.2000000000000002
sg12
(lp1611
I20000000
asg14
(lp1612
F6.2000000000000002
asg16
F113257297
ssS'0817447'
p1613
(dp1614
g4
(lp1615
I54767494
asg6
I1
sg7
(lp1616
I384682
asg9
I54767494
sg10
F5.7999999999999998
sg11
F5.7999999999999998
sg12
(lp1617
I45000000
asg14
(lp1618
F5.7999999999999998
asg16
F54767494
ssS'5023740'
p1619
(dp1620
g4
(lp1621
I13960394
asg6
I1
sg7
(lp1622
I391305
asg9
I13960394
sg10
F8.0999999999999996
sg11
F8.0999999999999996
sg12
(lp1623
I0
asg14
(lp1624
F8.0999999999999996
asg16
F13960394
ssS'0185749'
p1625
(dp1626
g4
(lp1627
I850
asg6
I1
sg7
(lp1628
I401061
asg9
I850
sg10
F4.0999999999999996
sg11
F4.0999999999999996
sg12
(lp1629
I0
asg14
(lp1630
F4.0999999999999996
asg16
F850
ssS'0316795'
p1631
(dp1632
g4
(lp1633
I109649
asg6
I1
sg7
(lp1634
I380808
asg9
I109649
sg10
F7.7999999999999998
sg11
F7.7999999999999998
sg12
(lp1635
I0
asg14
(lp1636
F7.7999999999999998
asg16
F109649
ssS'0990310'
p1637
(dp1638
g4
(lp1639
I102033
asg6
I1
sg7
(lp1640
I376534
asg9
I102033
sg10
F7.5
sg11
F7.5
sg12
(lp1641
I0
asg14
(lp1642
F7.5
asg16
F102033
ssS'0001348'
p1643
(dp1644
g4
(lp1645
I594912
asg6
I1
sg7
(lp1646
I360030
asg9
I594912
sg10
F7.0999999999999996
sg11
F7.0999999999999996
sg12
(lp1647
I0
asg14
(lp1648
F7.0999999999999996
asg16
F594912
ssS'0001639'
p1649
(dp1650
g4
(lp1651
I31153464
asg6
I1
sg7
(lp1652
I205584
asg9
I31153464
sg10
F5.5
sg11
F5.5
sg12
(lp1653
I140000000
asg14
(lp1654
F5.5
asg16
F31153464
ssS'0619762'
p1655
(dp1656
g4
(lp1657
I8874389
asg6
I1
sg7
(lp1658
I317557
asg9
I8874389
sg10
F7.4000000000000004
sg11
F7.4000000000000004
sg12
(lp1659
I0
asg14
(lp1660
F7.4000000000000004
asg16
F8874389
ssS'0596962'
p1661
(dp1662
g4
(lp1663
I310
asg6
I1
sg7
(lp1664
I380879
asg9
I310
sg10
F6.2000000000000002
sg11
F6.2000000000000002
sg12
(lp1665
I0
asg14
(lp1666
F6.2000000000000002
asg16
F310
ssS'2096090'
p1667
(dp1668
g4
(lp1669
I2000093
asg6
I1
sg7
(lp1670
I379441
asg9
I2000093
sg10
F7.2000000000000002
sg11
F7.2000000000000002
sg12
(lp1671
I0
asg14
(lp1672
F7.2000000000000002
asg16
F2000093
ssS'0011752'
p1673
(dp1674
g4
(lp1675
I1479387
asg6
I1
sg7
(lp1676
I374475
asg9
I1479387
sg10
F7.5999999999999996
sg11
F7.5999999999999996
sg12
(lp1677
I3000000
asg14
(lp1678
F7.5999999999999996
asg16
F1479387
ssS'1954634'
p1679
(dp1680
g4
(lp1681
I153707064
asg6
I1
sg7
(lp1682
I421268
asg9
I153707064
sg10
F5.9000000000000004
sg11
F5.9000000000000004
sg12
(lp1683
I0
asg14
(lp1684
F5.9000000000000004
asg16
F153707064
ssS'0000464'
p1685
(dp1686
g4
(lp1687
I2152738
aI440627
asg6
I2
sg7
(lp1688
I370755
aI392820
asg9
I2593365
sg10
F7.3000000000000007
sg11
F14.600000000000001
sg12
(lp1689
I5000000
aI0
asg14
(lp1690
F7.4000000000000004
aF7.2000000000000002
asg16
F1296682.5
ssS'1042822'
p1691
(dp1692
g4
(lp1693
I60438
asg6
I1
sg7
(lp1694
I342165
asg9
I60438
sg10
F6.7000000000000002
sg11
F6.7000000000000002
sg12
(lp1695
I0
asg14
(lp1696
F6.7000000000000002
asg16
F60438
ssS'1643201'
p1697
(dp1698
g4
(lp1699
I15073
asg6
I1
sg7
(lp1700
I296879
asg9
I15073
sg10
F7.0999999999999996
sg11
F7.0999999999999996
sg12
(lp1701
I0
asg14
(lp1702
F7.0999999999999996
asg16
F15073
ssS'1155957'
p1703
(dp1704
g4
(lp1705
I11678
asg6
I1
sg7
(lp1706
I382455
asg9
I11678
sg10
F6.9000000000000004
sg11
F6.9000000000000004
sg12
(lp1707
I0
asg14
(lp1708
F6.9000000000000004
asg16
F11678
ssS'0672060'
p1709
(dp1710
g4
(lp1711
I27284
asg6
I1
sg7
(lp1712
I373481
asg9
I27284
sg10
F7
sg11
F7
sg12
(lp1713
I0
asg14
(lp1714
F7
asg16
F27284
ssS'4218006'
p1715
(dp1716
g4
(lp1717
I1163265
asg6
I1
sg7
(lp1718
I390641
asg9
I1163265
sg10
F5.7999999999999998
sg11
F5.7999999999999998
sg12
(lp1719
I0
asg14
(lp1720
F5.7999999999999998
asg16
F1163265
ssS'5309001'
p1721
(dp1722
g4
(lp1723
I368384330
asg6
I1
sg7
(lp1724
I403052
asg9
I368384330
sg10
F6.7000000000000002
sg11
F6.7000000000000002
sg12
(lp1725
I0
asg14
(lp1726
F6.7000000000000002
asg16
F368384330
ssS'0000867'
p1727
(dp1728
g4
(lp1729
I262921
asg6
I1
sg7
(lp1730
I291264
asg9
I262921
sg10
F6.0999999999999996
sg11
F6.0999999999999996
sg12
(lp1731
I0
asg14
(lp1732
F6.0999999999999996
asg16
F262921
ssS'2165634'
p1733
(dp1734
g4
(lp1735
I25531
asg6
I1
sg7
(lp1736
I403517
asg9
I25531
sg10
F5.0999999999999996
sg11
F5.0999999999999996
sg12
(lp1737
I0
asg14
(lp1738
F5.0999999999999996
asg16
F25531
ssS'3644812'
p1739
(dp1740
g4
(lp1741
I67054
asg6
I1
sg7
(lp1742
I394170
asg9
I67054
sg10
F6.5
sg11
F6.5
sg12
(lp1743
I0
asg14
(lp1744
F6.5
asg16
F67054
ssS'0000517'
p1745
(dp1746
g4
(lp1747
I55409
asg6
I1
sg7
(lp1748
I417198
asg9
I55409
sg10
F8.0999999999999996
sg11
F8.0999999999999996
sg12
(lp1749
I0
asg14
(lp1750
F8.0999999999999996
asg16
F55409
ssS'0000886'
p1751
(dp1752
g4
(lp1753
I3652206
asg6
I1
sg7
(lp1754
I291328
asg9
I3652206
sg10
F5.7000000000000002
sg11
F5.7000000000000002
sg12
(lp1755
I26700000
asg14
(lp1756
F5.7000000000000002
asg16
F3652206
ssS'1535961'
p1757
(dp1758
g4
(lp1759
I435266
asg6
I1
sg7
(lp1760
I408466
asg9
I435266
sg10
F7.5999999999999996
sg11
F7.5999999999999996
sg12
(lp1761
I380000
asg14
(lp1762
F7.5999999999999996
asg16
F435266
ssS'1558500'
p1763
(dp1764
g4
(lp1765
I18319
asg6
I1
sg7
(lp1766
I384687
asg9
I18319
sg10
F3.6000000000000001
sg11
F3.6000000000000001
sg12
(lp1767
I0
asg14
(lp1768
F3.6000000000000001
asg16
F18319
ssS'0443505'
p1769
(dp1770
g4
(lp1771
I107509366
asg6
I1
sg7
(lp1772
I153518
asg9
I107509366
sg10
F6.2999999999999998
sg11
F6.2999999999999998
sg12
(lp1773
I73000000
asg14
(lp1774
F6.2999999999999998
asg16
F107509366
ssS'0568339'
p1775
(dp1776
g4
(lp1777
I3289
asg6
I1
sg7
(lp1778
I366324
asg9
I3289
sg10
F4.7999999999999998
sg11
F4.7999999999999998
sg12
(lp1779
I0
asg14
(lp1780
F4.7999999999999998
asg16
F3289
ssS'0002077'
p1781
(dp1782
g4
(lp1783
I15789389
asg6
I1
sg7
(lp1784
I319888
asg9
I15789389
sg10
F7.4000000000000004
sg11
F7.4000000000000004
sg12
(lp1785
I23000000
asg14
(lp1786
F7.4000000000000004
asg16
F15789389
ssS'0144881'
p1787
(dp1788
g4
(lp1789
I7138
asg6
I1
sg7
(lp1790
I362478
asg9
I7138
sg10
F6.2000000000000002
sg11
F6.2000000000000002
sg12
(lp1791
I0
asg14
(lp1792
F6.2000000000000002
asg16
F7138
ssS'0357221'
p1793
(dp1794
g4
(lp1795
I22267
asg6
I1
sg7
(lp1796
I337515
asg9
I22267
sg10
F6.0999999999999996
sg11
F6.0999999999999996
sg12
(lp1797
I0
asg14
(lp1798
F6.0999999999999996
asg16
F22267
ssS'3046419'
p1799
(dp1800
g4
(lp1801
I17102
asg6
I1
sg7
(lp1802
I385737
asg9
I17102
sg10
F5.7000000000000002
sg11
F5.7000000000000002
sg12
(lp1803
I0
asg14
(lp1804
F5.7000000000000002
asg16
F17102
ssS'1564890'
p1805
(dp1806
g4
(lp1807
I14218
asg6
I1
sg7
(lp1808
I292834
asg9
I14218
sg10
F4.7999999999999998
sg11
F4.7999999999999998
sg12
(lp1809
I0
asg14
(lp1810
F4.7999999999999998
asg16
F14218
ssS'0139867'
p1811
(dp1812
g4
(lp1813
I20007149
asg6
I1
sg7
(lp1814
I369883
asg9
I20007149
sg10
F6.0999999999999996
sg11
F6.0999999999999996
sg12
(lp1815
I8500000
asg14
(lp1816
F6.0999999999999996
asg16
F20007149
ssS'1887473'
p1817
(dp1818
g4
(lp1819
I11722
asg6
I1
sg7
(lp1820
I353259
asg9
I11722
sg10
F7
sg11
F7
sg12
(lp1821
I0
asg14
(lp1822
F7
asg16
F11722
ssS'0437652'
p1823
(dp1824
g4
(lp1825
I34034
asg6
I1
sg7
(lp1826
I410882
asg9
I34034
sg10
F5.5
sg11
F5.5
sg12
(lp1827
I0
asg14
(lp1828
F5.5
asg16
F34034
ssS'0061982'
p1829
(dp1830
g4
(lp1831
I2082980
asg6
I1
sg7
(lp1832
I409502
asg9
I2082980
sg10
F5.5
sg11
F5.5
sg12
(lp1833
I1500000
asg14
(lp1834
F5.5
asg16
F2082980
ssS'1107383'
p1835
(dp1836
g4
(lp1837
I119100
asg6
I1
sg7
(lp1838
I370654
asg9
I119100
sg10
F7
sg11
F7
sg12
(lp1839
I0
asg14
(lp1840
F7
asg16
F119100
ssS'2543774'
p1841
(dp1842
g4
(lp1843
I29259
asg6
I1
sg7
(lp1844
I402193
asg9
I29259
sg10
F4.2000000000000002
sg11
F4.2000000000000002
sg12
(lp1845
I0
asg14
(lp1846
F4.2000000000000002
asg16
F29259
ssS'3016523'
p1847
(dp1848
g4
(lp1849
I50839
asg6
I1
sg7
(lp1850
I379887
asg9
I50839
sg10
F6.7000000000000002
sg11
F6.7000000000000002
sg12
(lp1851
I0
asg14
(lp1852
F6.7000000000000002
asg16
F50839
ssS'0029242'
p1853
(dp1854
g4
(lp1855
I52713
asg6
I1
sg7
(lp1856
I377154
asg9
I52713
sg10
F7.2000000000000002
sg11
F7.2000000000000002
sg12
(lp1857
I0
asg14
(lp1858
F7.2000000000000002
asg16
F52713
ssS'3293337'
p1859
(dp1860
g4
(lp1861
I18092
asg6
I1
sg7
(lp1862
I407803
asg9
I18092
sg10
F7.2999999999999998
sg11
F7.2999999999999998
sg12
(lp1863
I0
asg14
(lp1864
F7.2999999999999998
asg16
F18092
ssS'0619836'
p1865
(dp1866
g4
(lp1867
I62524260
asg6
I1
sg7
(lp1868
I267860
asg9
I62524260
sg10
F5.9000000000000004
sg11
F5.9000000000000004
sg12
(lp1869
I60000000
asg14
(lp1870
F5.9000000000000004
asg16
F62524260
ssS'4404664'
p1871
(dp1872
g4
(lp1873
I7100177
asg6
I1
sg7
(lp1874
I412471
asg9
I7100177
sg10
F3.2000000000000002
sg11
F3.2000000000000002
sg12
(lp1875
I250000
asg14
(lp1876
F3.2000000000000002
asg16
F7100177
ssS'0000165'
p1877
(dp1878
g4
(lp1879
I2930414
asg6
I1
sg7
(lp1880
I391698
asg9
I2930414
sg10
F7.9000000000000004
sg11
F7.9000000000000004
sg12
(lp1881
I0
asg14
(lp1882
F7.9000000000000004
asg16
F2930414
ssS'1154886'
p1883
(dp1884
g4
(lp1885
I64063008
asg6
I1
sg7
(lp1886
I278154
asg9
I64063008
sg10
F5.7000000000000002
sg11
F5.7000000000000002
sg12
(lp1887
I105000000
asg14
(lp1888
F5.7000000000000002
asg16
F64063008
ssS'1129214'
p1889
(dp1890
g4
(lp1891
I29495
asg6
I1
sg7
(lp1892
I361191
asg9
I29495
sg10
F8.8000000000000007
sg11
F8.8000000000000007
sg12
(lp1893
I0
asg14
(lp1894
F8.8000000000000007
asg16
F29495
ssS'0697014'
p1895
(dp1896
g4
(lp1897
I106986
asg6
I1
sg7
(lp1898
I413579
asg9
I106986
sg10
F7.7999999999999998
sg11
F7.7999999999999998
sg12
(lp1899
I0
asg14
(lp1900
F7.7999999999999998
asg16
F106986
ssS'0278476'
p1901
(dp1902
g4
(lp1903
I255388
asg6
I1
sg7
(lp1904
I407588
asg9
I255388
sg10
F7.5
sg11
F7.5
sg12
(lp1905
I0
asg14
(lp1906
F7.5
asg16
F255388
ssS'0862211'
p1907
(dp1908
g4
(lp1909
I64063008
asg6
I1
sg7
(lp1910
I278154
asg9
I64063008
sg10
F5.7000000000000002
sg11
F5.7000000000000002
sg12
(lp1911
I105000000
asg14
(lp1912
F5.7000000000000002
asg16
F64063008
ssS'0593604'
p1913
(dp1914
g4
(lp1915
I14393
asg6
I1
sg7
(lp1916
I422178
asg9
I14393
sg10
F8.6999999999999993
sg11
F8.6999999999999993
sg12
(lp1917
I0
asg14
(lp1918
F8.6999999999999993
asg16
F14393
ssS'0853238'
p1919
(dp1920
g4
(lp1921
I75395035
asg6
I1
sg7
(lp1922
I346685
asg9
I75395035
sg10
F6.5
sg11
F6.5
sg12
(lp1923
I45000000
asg14
(lp1924
F6.5
asg16
F75395035
ssS'8224458'
p1925
(dp1926
g4
(lp1927
I897876
asg6
I1
sg7
(lp1928
I400247
asg9
I897876
sg10
F7.0999999999999996
sg11
F7.0999999999999996
sg12
(lp1929
I0
asg14
(lp1930
F7.0999999999999996
asg16
F897876
ssS'1548930'
p1931
(dp1932
g4
(lp1933
I32492859
asg6
I1
sg7
(lp1934
I109453
asg9
I32492859
sg10
F4.9000000000000004
sg11
F4.9000000000000004
sg12
(lp1935
I0
asg14
(lp1936
F4.9000000000000004
asg16
F32492859
ssS'1284464'
p1937
(dp1938
g4
(lp1939
I182695
asg6
I1
sg7
(lp1940
I370464
asg9
I182695
sg10
F4.7000000000000002
sg11
F4.7000000000000002
sg12
(lp1941
I0
asg14
(lp1942
F4.7000000000000002
asg16
F182695
ssS'2320658'
p1943
(dp1944
g4
(lp1945
I248757044
asg6
I1
sg7
(lp1946
I277834
asg9
I248757044
sg10
F7.7000000000000002
sg11
F7.7000000000000002
sg12
(lp1947
I150000000
asg14
(lp1948
F7.7000000000000002
asg16
F248757044
ssS'1838841'
p1949
(dp1950
g4
(lp1951
I1659002
asg6
I1
sg7
(lp1952
I423412
asg9
I1659002
sg10
F4.9000000000000004
sg11
F4.9000000000000004
sg12
(lp1953
I0
asg14
(lp1954
F4.9000000000000004
asg16
F1659002
ssS'2147635'
p1955
(dp1956
g4
(lp1957
I26410477
asg6
I1
sg7
(lp1958
I407391
asg9
I26410477
sg10
F7.2999999999999998
sg11
F7.2999999999999998
sg12
(lp1959
I0
asg14
(lp1960
F7.2999999999999998
asg16
F26410477
ssS'0178251'
p1961
(dp1962
g4
(lp1963
I39928
asg6
I1
sg7
(lp1964
I410348
asg9
I39928
sg10
F6.5
sg11
F6.5
sg12
(lp1965
I0
asg14
(lp1966
F6.5
asg16
F39928
ssS'0218621'
p1967
(dp1968
g4
(lp1969
I79213375
asg6
I1
sg7
(lp1970
I316727
asg9
I79213375
sg10
F6
sg11
F6
sg12
(lp1971
I10000000
asg14
(lp1972
F6
asg16
F79213375
ssS'0373698'
p1973
(dp1974
g4
(lp1975
I27284
asg6
I1
sg7
(lp1976
I373481
asg9
I27284
sg10
F7
sg11
F7
sg12
(lp1977
I0
asg14
(lp1978
F7
asg16
F27284
ssS'2260872'
p1979
(dp1980
g4
(lp1981
I1326999
asg6
I1
sg7
(lp1982
I391779
asg9
I1326999
sg10
F5.2000000000000002
sg11
F5.2000000000000002
sg12
(lp1983
I0
asg14
(lp1984
F5.2000000000000002
asg16
F1326999
ssS'3486709'
p1985
(dp1986
g4
(lp1987
I26734
asg6
I1
sg7
(lp1988
I314029
asg9
I26734
sg10
F6.9000000000000004
sg11
F6.9000000000000004
sg12
(lp1989
I1500000
asg14
(lp1990
F6.9000000000000004
asg16
F26734
ssS'0282064'
p1991
(dp1992
g4
(lp1993
I4772155
asg6
I1
sg7
(lp1994
I372411
asg9
I4772155
sg10
F5.4000000000000004
sg11
F5.4000000000000004
sg12
(lp1995
I0
asg14
(lp1996
F5.4000000000000004
asg16
F4772155
ssS'0231999'
p1997
(dp1998
g4
(lp1999
I21497
asg6
I1
sg7
(lp2000
I418697
asg9
I21497
sg10
F7.7000000000000002
sg11
F7.7000000000000002
sg12
(lp2001
I0
asg14
(lp2002
F7.7000000000000002
asg16
F21497
ssS'2128335'
p2003
(dp2004
g4
(lp2005
I177404
asg6
I1
sg7
(lp2006
I299687
asg9
I177404
sg10
F5.2000000000000002
sg11
F5.2000000000000002
sg12
(lp2007
I38000000
asg14
(lp2008
F5.2000000000000002
asg16
F177404
ssS'2196568'
p2009
(dp2010
g4
(lp2011
I63014
asg6
I1
sg7
(lp2012
I320146
asg9
I63014
sg10
F5.5
sg11
F5.5
sg12
(lp2013
I1000000
asg14
(lp2014
F5.5
asg16
F63014
ssS'1383080'
p2015
(dp2016
g4
(lp2017
I32492859
asg6
I1
sg7
(lp2018
I109453
asg9
I32492859
sg10
F4.9000000000000004
sg11
F4.9000000000000004
sg12
(lp2019
I0
asg14
(lp2020
F4.9000000000000004
asg16
F32492859
ssS'0720135'
p2021
(dp2022
g4
(lp2023
I23083334
asg6
I1
sg7
(lp2024
I279641
asg9
I23083334
sg10
F6.5999999999999996
sg11
F6.5999999999999996
sg12
(lp2025
I35000000
asg14
(lp2026
F6.5999999999999996
asg16
F23083334
ssS'0504642'
p2027
(dp2028
g4
(lp2029
I6874837
asg6
I1
sg7
(lp2030
I267193
asg9
I6874837
sg10
F6.2000000000000002
sg11
F6.2000000000000002
sg12
(lp2031
I35000000
asg14
(lp2032
F6.2000000000000002
asg16
F6874837
ssS'1149785'
p2033
(dp2034
g4
(lp2035
I103144286
asg6
I1
sg7
(lp2036
I401132
asg9
I103144286
sg10
F1.8999999999999999
sg11
F1.8999999999999999
sg12
(lp2037
I500000
asg14
(lp2038
F1.8999999999999999
asg16
F103144286
ssS'0204628'
p2039
(dp2040
g4
(lp2041
I51728731
asg6
I1
sg7
(lp2042
I334543
asg9
I51728731
sg10
F8.0999999999999996
sg11
F8.0999999999999996
sg12
(lp2043
I12000000
asg14
(lp2044
F8.0999999999999996
asg16
F51728731
ssS'0298807'
p2045
(dp2046
g4
(lp2047
I93432655
asg6
I1
sg7
(lp2048
I333484
asg9
I93432655
sg10
F6.9000000000000004
sg11
F6.9000000000000004
sg12
(lp2049
I90000000
asg14
(lp2050
F6.9000000000000004
asg16
F93432655
ssS'0000948'
p2051
(dp2052
g4
(lp2053
I36261763
asg6
I1
sg7
(lp2054
I290250
asg9
I36261763
sg10
F7.4000000000000004
sg11
F7.4000000000000004
sg12
(lp2055
I50000000
asg14
(lp2056
F7.4000000000000004
asg16
F36261763
ssS'6583447'
p2057
(dp2058
g4
(lp2059
I13099931
asg6
I1
sg7
(lp2060
I391995
asg9
I13099931
sg10
F5.5
sg11
F5.5
sg12
(lp2061
I5000000
asg14
(lp2062
F5.5
asg16
F13099931
ssS'0885249'
p2063
(dp2064
g4
(lp2065
I1978592
asg6
I1
sg7
(lp2066
I303991
asg9
I1978592
sg10
F7
sg11
F7
sg12
(lp2067
I0
asg14
(lp2068
F7
asg16
F1978592
ssS'0518070'
p2069
(dp2070
g4
(lp2071
I560824
asg6
I1
sg7
(lp2072
I416249
asg9
I560824
sg10
F6.7000000000000002
sg11
F6.7000000000000002
sg12
(lp2073
I0
asg14
(lp2074
F6.7000000000000002
asg16
F560824
ssS'2408871'
p2075
(dp2076
g4
(lp2077
I13191
asg6
I1
sg7
(lp2078
I274504
asg9
I13191
sg10
F5.2000000000000002
sg11
F5.2000000000000002
sg12
(lp2079
I0
asg14
(lp2080
F5.2000000000000002
asg16
F13191
ssS'0001880'
p2081
(dp2082
g4
(lp2083
I58697076
asg6
I1
sg7
(lp2084
I343611
asg9
I58697076
sg10
F6.0999999999999996
sg11
F6.0999999999999996
sg12
(lp2085
I68000000
asg14
(lp2086
F6.0999999999999996
asg16
F58697076
ssS'0383688'
p2087
(dp2088
g4
(lp2089
I1918403
asg6
I1
sg7
(lp2090
I315011
asg9
I1918403
sg10
F6.7999999999999998
sg11
F6.7999999999999998
sg12
(lp2091
I15000000
asg14
(lp2092
F6.7999999999999998
asg16
F1918403
ssS'1222421'
p2093
(dp2094
g4
(lp2095
I17062499
asg6
I1
sg7
(lp2096
I276905
asg9
I17062499
sg10
F3.7000000000000002
sg11
F3.7000000000000002
sg12
(lp2097
I18000000
asg14
(lp2098
F3.7000000000000002
asg16
F17062499
ssS'2965065'
p2099
(dp2100
g4
(lp2101
I386540
asg6
I1
sg7
(lp2102
I382572
asg9
I386540
sg10
F7.0999999999999996
sg11
F7.0999999999999996
sg12
(lp2103
I0
asg14
(lp2104
F7.0999999999999996
asg16
F386540
ssS'1093039'
p2105
(dp2106
g4
(lp2107
I35144505
asg6
I1
sg7
(lp2108
I335796
asg9
I35144505
sg10
F6.0999999999999996
sg11
F6.0999999999999996
sg12
(lp2109
I9000000
asg14
(lp2110
F6.0999999999999996
asg16
F35144505
ssS'3104760'
p2111
(dp2112
g4
(lp2113
I650465
asg6
I1
sg7
(lp2114
I296867
asg9
I650465
sg10
F7.2999999999999998
sg11
F7.2999999999999998
sg12
(lp2115
I0
asg14
(lp2116
F7.2999999999999998
asg16
F650465
ssS'0811583'
p2117
(dp2118
g4
(lp2119
I330360194
asg6
I1
sg7
(lp2120
I209112
asg9
I330360194
sg10
F6.7000000000000002
sg11
F6.7000000000000002
sg12
(lp2121
I250000000
asg14
(lp2122
F6.7000000000000002
asg16
F330360194
ssS'6669786'
p2123
(dp2124
g4
(lp2125
I11239
asg6
I1
sg7
(lp2126
I444106
asg9
I11239
sg10
F8
sg11
F8
sg12
(lp2127
I0
asg14
(lp2128
F8
asg16
F11239
ssS'0291205'
p2129
(dp2130
g4
(lp2131
I31016021
asg6
I1
sg7
(lp2132
I345920
asg9
I31016021
sg10
F6.7999999999999998
sg11
F6.7999999999999998
sg12
(lp2133
I36000000
asg14
(lp2134
F6.7999999999999998
asg16
F31016021
ssS'1905310'
p2135
(dp2136
g4
(lp2137
I49979
asg6
I1
sg7
(lp2138
I245913
asg9
I49979
sg10
F7.2999999999999998
sg11
F7.2999999999999998
sg12
(lp2139
I0
asg14
(lp2140
F7.2999999999999998
asg16
F49979
ssS'5165519'
p2141
(dp2142
g4
(lp2143
I3016
asg6
I1
sg7
(lp2144
I381021
asg9
I3016
sg10
F6.5999999999999996
sg11
F6.5999999999999996
sg12
(lp2145
I0
asg14
(lp2146
F6.5999999999999996
asg16
F3016
ssS'0000332'
p2147
(dp2148
g4
(lp2149
I2610896
asg6
I1
sg7
(lp2150
I316000
asg9
I2610896
sg10
F6.4000000000000004
sg11
F6.4000000000000004
sg12
(lp2151
I0
asg14
(lp2152
F6.4000000000000004
asg16
F2610896
ssS'0453518'
p2153
(dp2154
g4
(lp2155
I541719
asg6
I1
sg7
(lp2156
I363579
asg9
I541719
sg10
F7.2000000000000002
sg11
F7.2000000000000002
sg12
(lp2157
I8620000
asg14
(lp2158
F7.2000000000000002
asg16
F541719
ssS'0721817'
p2159
(dp2160
g4
(lp2161
I36880033
asg6
I1
sg7
(lp2162
I335778
asg9
I36880033
sg10
F6.2999999999999998
sg11
F6.2999999999999998
sg12
(lp2163
I20000000
asg14
(lp2164
F6.2999999999999998
asg16
F36880033
ssS'0847859'
p2165
(dp2166
g4
(lp2167
I42065185
asg6
I1
sg7
(lp2168
I340402
asg9
I42065185
sg10
F6
sg11
F6
sg12
(lp2169
I17000000
asg14
(lp2170
F6
asg16
F42065185
ssS'1160962'
p2171
(dp2172
g4
(lp2173
I38583626
asg6
I1
sg7
(lp2174
I328387
asg9
I38583626
sg10
F6.5999999999999996
sg11
F6.5999999999999996
sg12
(lp2175
I20000000
asg14
(lp2176
F6.5999999999999996
asg16
F38583626
ssS'2040169'
p2177
(dp2178
g4
(lp2179
I6900335
asg6
I1
sg7
(lp2180
I333674
asg9
I6900335
sg10
F5.7000000000000002
sg11
F5.7000000000000002
sg12
(lp2181
I0
asg14
(lp2182
F5.7000000000000002
asg16
F6900335
ssS'5682145'
p2183
(dp2184
g4
(lp2185
I125616
asg6
I1
sg7
(lp2186
I384641
asg9
I125616
sg10
F7
sg11
F7
sg12
(lp2187
I0
asg14
(lp2188
F7
asg16
F125616
ssS'3332461'
p2189
(dp2190
g4
(lp2191
I94326
asg6
I1
sg7
(lp2192
I429645
asg9
I94326
sg10
F3.7999999999999998
sg11
F3.7999999999999998
sg12
(lp2193
I0
asg14
(lp2194
F3.7999999999999998
asg16
F94326
ssS'0825748'
p2195
(dp2196
g4
(lp2197
I1676108
asg6
I1
sg7
(lp2198
I376261
asg9
I1676108
sg10
F7.5999999999999996
sg11
F7.5999999999999996
sg12
(lp2199
I0
asg14
(lp2200
F7.5999999999999996
asg16
F1676108
ssS'1973681'
p2201
(dp2202
g4
(lp2203
I6304223
asg6
I1
sg7
(lp2204
I310888
asg9
I6304223
sg10
F6.5999999999999996
sg11
F6.5999999999999996
sg12
(lp2205
I0
asg14
(lp2206
F6.5999999999999996
asg16
F6304223
ssS'0687751'
p2207
(dp2208
g4
(lp2209
I24852
asg6
I1
sg7
(lp2210
I296865
asg9
I24852
sg10
F6.5
sg11
F6.5
sg12
(lp2211
I0
asg14
(lp2212
F6.5
asg16
F24852
ssS'3686875'
p2213
(dp2214
g4
(lp2215
I15587
asg6
I1
sg7
(lp2216
I356901
asg9
I15587
sg10
F4.4000000000000004
sg11
F4.4000000000000004
sg12
(lp2217
I0
asg14
(lp2218
F4.4000000000000004
asg16
F15587
ssS'0491708'
p2219
(dp2220
g4
(lp2221
I303002
asg6
I1
sg7
(lp2222
I383869
asg9
I303002
sg10
F5.7999999999999998
sg11
F5.7999999999999998
sg12
(lp2223
I8600000
asg14
(lp2224
F5.7999999999999998
asg16
F303002
ssS'0589182'
p2225
(dp2226
g4
(lp2227
I3351735
asg6
I1
sg7
(lp2228
I312669
asg9
I3351735
sg10
F6.2000000000000002
sg11
F6.2000000000000002
sg12
(lp2229
I0
asg14
(lp2230
F6.2000000000000002
asg16
F3351735
ssS'0680846'
p2231
(dp2232
g4
(lp2233
I43034523
asg6
I1
sg7
(lp2234
I308266
asg9
I43034523
sg10
F7.0999999999999996
sg11
F7.0999999999999996
sg12
(lp2235
I40000000
asg14
(lp2236
F7.0999999999999996
asg16
F43034523
ssS'2371848'
p2237
(dp2238
g4
(lp2239
I4218
asg6
I1
sg7
(lp2240
I339116
asg9
I4218
sg10
F3.7999999999999998
sg11
F3.7999999999999998
sg12
(lp2241
I0
asg14
(lp2242
F3.7999999999999998
asg16
F4218
ssS'2082562'
p2243
(dp2244
g4
(lp2245
I151101803
asg6
I1
sg7
(lp2246
I269573
asg9
I151101803
sg10
F5.5
sg11
F5.5
sg12
(lp2247
I0
asg14
(lp2248
F5.5
asg16
F151101803
ssS'4318159'
p2249
(dp2250
g4
(lp2251
I12391761
asg6
I1
sg7
(lp2252
I360814
asg9
I12391761
sg10
F8.6999999999999993
sg11
F8.6999999999999993
sg12
(lp2253
I10400000
asg14
(lp2254
F8.6999999999999993
asg16
F12391761
ssS'0561879'
p2255
(dp2256
g4
(lp2257
I2341534
asg6
I1
sg7
(lp2258
I338778
asg9
I2341534
sg10
F6.7000000000000002
sg11
F6.7000000000000002
sg12
(lp2259
I0
asg14
(lp2260
F6.7000000000000002
asg16
F2341534
ssS'0169806'
p2261
(dp2262
g4
(lp2263
I5205468
asg6
I1
sg7
(lp2264
I371645
asg9
I5205468
sg10
F7.9000000000000004
sg11
F7.9000000000000004
sg12
(lp2265
I0
asg14
(lp2266
F7.9000000000000004
asg16
F5205468
ssS'1249411'
p2267
(dp2268
g4
(lp2269
I34694
asg6
I1
sg7
(lp2270
I395181
asg9
I34694
sg10
F6.4000000000000004
sg11
F6.4000000000000004
sg12
(lp2271
I0
asg14
(lp2272
F6.4000000000000004
asg16
F34694
ssS'1257352'
p2273
(dp2274
g4
(lp2275
I4611
asg6
I1
sg7
(lp2276
I346134
asg9
I4611
sg10
F6.2999999999999998
sg11
F6.2999999999999998
sg12
(lp2277
I0
asg14
(lp2278
F6.2999999999999998
asg16
F4611
ssS'0228542'
p2279
(dp2280
g4
(lp2281
I46843513
asg6
I1
sg7
(lp2282
I259694
asg9
I46843513
sg10
F6.0999999999999996
sg11
F6.0999999999999996
sg12
(lp2283
I38000000
asg14
(lp2284
F6.0999999999999996
asg16
F46843513
ssS'0334787'
p2285
(dp2286
g4
(lp2287
I1361045
asg6
I1
sg7
(lp2288
I267192
asg9
I1361045
sg10
F6.5
sg11
F6.5
sg12
(lp2289
I0
asg14
(lp2290
F6.5
asg16
F1361045
ssS'0323758'
p2291
(dp2292
g4
(lp2293
I2915
asg6
I1
sg7
(lp2294
I305943
asg9
I2915
sg10
F5.2000000000000002
sg11
F5.2000000000000002
sg12
(lp2295
I0
asg14
(lp2296
F5.2000000000000002
asg16
F2915
ssS'0842339'
p2297
(dp2298
g4
(lp2299
I72679278
asg6
I1
sg7
(lp2300
I332210
asg9
I72679278
sg10
F6.9000000000000004
sg11
F6.9000000000000004
sg12
(lp2301
I70000000
asg14
(lp2302
F6.9000000000000004
asg16
F72679278
ssS'0637493'
p2303
(dp2304
g4
(lp2305
I6490401
asg6
I1
sg7
(lp2306
I318850
asg9
I6490401
sg10
F5.5
sg11
F5.5
sg12
(lp2307
I18500000
asg14
(lp2308
F5.5
asg16
F6490401
ssS'5457825'
p2309
(dp2310
g4
(lp2311
I10232
asg6
I1
sg7
(lp2312
I328429
asg9
I10232
sg10
F4.7999999999999998
sg11
F4.7999999999999998
sg12
(lp2313
I0
asg14
(lp2314
F4.7999999999999998
asg16
F10232
ssS'0114226'
p2315
(dp2316
g4
(lp2317
I3866794
asg6
I1
sg7
(lp2318
I353326
asg9
I3866794
sg10
F7.2000000000000002
sg11
F7.2000000000000002
sg12
(lp2319
I0
asg14
(lp2320
F7.2000000000000002
asg16
F3866794
ssS'1943168'
p2321
(dp2322
g4
(lp2323
I583664
asg6
I1
sg7
(lp2324
I373446
asg9
I583664
sg10
F8.4000000000000004
sg11
F8.4000000000000004
sg12
(lp2325
I0
asg14
(lp2326
F8.4000000000000004
asg16
F583664
ssS'1224554'
p2327
(dp2328
g4
(lp2329
I5844
asg6
I1
sg7
(lp2330
I395177
asg9
I5844
sg10
F7.4000000000000004
sg11
F7.4000000000000004
sg12
(lp2331
I0
asg14
(lp2332
F7.4000000000000004
asg16
F5844
ssS'3109536'
p2333
(dp2334
g4
(lp2335
I67268835
asg6
I1
sg7
(lp2336
I404729
asg9
I67268835
sg10
F7.2000000000000002
sg11
F7.2000000000000002
sg12
(lp2337
I0
asg14
(lp2338
F7.2000000000000002
asg16
F67268835
ssS'1179457'
p2339
(dp2340
g4
(lp2341
I43403
asg6
I1
sg7
(lp2342
I363185
asg9
I43403
sg10
F2.2999999999999998
sg11
F2.2999999999999998
sg12
(lp2343
I0
asg14
(lp2344
F2.2999999999999998
asg16
F43403
ssS'1823216'
p2345
(dp2346
g4
(lp2347
I70950
asg6
I1
sg7
(lp2348
I373339
asg9
I70950
sg10
F7.2000000000000002
sg11
F7.2000000000000002
sg12
(lp2349
I0
asg14
(lp2350
F7.2000000000000002
asg16
F70950
ssS'3297673'
p2351
(dp2352
g4
(lp2353
I146487
asg6
I1
sg7
(lp2354
I324289
asg9
I146487
sg10
F6.0999999999999996
sg11
F6.0999999999999996
sg12
(lp2355
I0
asg14
(lp2356
F6.0999999999999996
asg16
F146487
ssS'0139081'
p2357
(dp2358
g4
(lp2359
I1490948
asg6
I1
sg7
(lp2360
I405604
asg9
I1490948
sg10
F8.1999999999999993
sg11
F8.1999999999999993
sg12
(lp2361
I0
asg14
(lp2362
F8.1999999999999993
asg16
F1490948
ssS'1062463'
p2363
(dp2364
g4
(lp2365
I8005586
asg6
I1
sg7
(lp2366
I368940
asg9
I8005586
sg10
F5.2999999999999998
sg11
F5.2999999999999998
sg12
(lp2367
I13500000
asg14
(lp2368
F5.2999999999999998
asg16
F8005586
ssS'0299990'
p2369
(dp2370
g4
(lp2371
I611702
asg6
I1
sg7
(lp2372
I317954
asg9
I611702
sg10
F7.0999999999999996
sg11
F7.0999999999999996
sg12
(lp2373
I0
asg14
(lp2374
F7.0999999999999996
asg16
F611702
ssS'0950775'
p2375
(dp2376
g4
(lp2377
I143528619
asg6
I1
sg7
(lp2378
I140300
asg9
I143528619
sg10
F7.2000000000000002
sg11
F7.2000000000000002
sg12
(lp2379
I145000000
asg14
(lp2380
F7.2000000000000002
asg16
F143528619
ssS'1413364'
p2381
(dp2382
g4
(lp2383
I38583626
asg6
I1
sg7
(lp2384
I328387
asg9
I38583626
sg10
F6.5999999999999996
sg11
F6.5999999999999996
sg12
(lp2385
I20000000
asg14
(lp2386
F6.5999999999999996
asg16
F38583626
ssS'6287571'
p2387
(dp2388
g4
(lp2389
I91441
asg6
I1
sg7
(lp2390
I371449
asg9
I91441
sg10
F6.7000000000000002
sg11
F6.7000000000000002
sg12
(lp2391
I0
asg14
(lp2392
F6.7000000000000002
asg16
F91441
ssS'0937306'
p2393
(dp2394
g4
(lp2395
I9669521
asg6
I1
sg7
(lp2396
I378200
asg9
I9669521
sg10
F4.9000000000000004
sg11
F4.9000000000000004
sg12
(lp2397
I0
asg14
(lp2398
F4.9000000000000004
asg16
F9669521
ssS'4138262'
p2399
(dp2400
g4
(lp2401
I331507
asg6
I1
sg7
(lp2402
I377213
asg9
I331507
sg10
F7.2000000000000002
sg11
F7.2000000000000002
sg12
(lp2403
I5069632
asg14
(lp2404
F7.2000000000000002
asg16
F331507
ssS'0428600'
p2405
(dp2406
g4
(lp2407
I59689605
asg6
I1
sg7
(lp2408
I302688
asg9
I59689605
sg10
F6
sg11
F6
sg12
(lp2409
I18000000
asg14
(lp2410
F6
asg16
F59689605
ssS'4410260'
p2411
(dp2412
g4
(lp2413
I455
asg6
I1
sg7
(lp2414
I404279
asg9
I455
sg10
F5.9000000000000004
sg11
F5.9000000000000004
sg12
(lp2415
I0
asg14
(lp2416
F5.9000000000000004
asg16
F455
ssS'0751577'
p2417
(dp2418
g4
(lp2419
I408084349
asg6
I1
sg7
(lp2420
I271110
asg9
I408084349
sg10
F7.9000000000000004
sg11
F7.9000000000000004
sg12
(lp2421
I250000000
asg14
(lp2422
F7.9000000000000004
asg16
F408084349
ssS'1098493'
p2423
(dp2424
g4
(lp2425
I127440871
asg6
I1
sg7
(lp2426
I302699
asg9
I127440871
sg10
F6.2999999999999998
sg11
F6.2999999999999998
sg12
(lp2427
I50000000
asg14
(lp2428
F6.2999999999999998
asg16
F127440871
ssS'1990335'
p2429
(dp2430
g4
(lp2431
I897876
asg6
I1
sg7
(lp2432
I400247
asg9
I897876
sg10
F7.0999999999999996
sg11
F7.0999999999999996
sg12
(lp2433
I0
asg14
(lp2434
F7.0999999999999996
asg16
F897876
ssS'0001754'
p2435
(dp2436
g4
(lp2437
I470575
asg6
I1
sg7
(lp2438
I326094
asg9
I470575
sg10
F5.9000000000000004
sg11
F5.9000000000000004
sg12
(lp2439
I0
asg14
(lp2440
F5.9000000000000004
asg16
F470575
ssS'0001756'
p2441
(dp2442
g4
(lp2443
I19700032
asg6
I1
sg7
(lp2444
I322240
asg9
I19700032
sg10
F5.2999999999999998
sg11
F5.2999999999999998
sg12
(lp2445
I30000000
asg14
(lp2446
F5.2999999999999998
asg16
F19700032
ssS'3188528'
p2447
(dp2448
g4
(lp2449
I117755
asg6
I1
sg7
(lp2450
I408106
asg9
I117755
sg10
F8.0999999999999996
sg11
F8.0999999999999996
sg12
(lp2451
I0
asg14
(lp2452
F8.0999999999999996
asg16
F117755
ssS'2073372'
p2453
(dp2454
g4
(lp2455
I27099
asg6
I1
sg7
(lp2456
I371560
asg9
I27099
sg10
F6.2000000000000002
sg11
F6.2000000000000002
sg12
(lp2457
I0
asg14
(lp2458
F6.2000000000000002
asg16
F27099
ssS'0716347'
p2459
(dp2460
g4
(lp2461
I104038
asg6
I1
sg7
(lp2462
I301365
asg9
I104038
sg10
F6.2000000000000002
sg11
F6.2000000000000002
sg12
(lp2463
I7000000
asg14
(lp2464
F6.2000000000000002
asg16
F104038
ssS'0166256'
p2465
(dp2466
g4
(lp2467
I248757044
asg6
I1
sg7
(lp2468
I277834
asg9
I248757044
sg10
F7.7000000000000002
sg11
F7.7000000000000002
sg12
(lp2469
I150000000
asg14
(lp2470
F7.7000000000000002
asg16
F248757044
ssS'0870920'
p2471
(dp2472
g4
(lp2473
I105036
asg6
I1
sg7
(lp2474
I366099
asg9
I105036
sg10
F3.6000000000000001
sg11
F3.6000000000000001
sg12
(lp2475
I0
asg14
(lp2476
F3.6000000000000001
asg16
F105036
ssS'2410081'
p2477
(dp2478
g4
(lp2479
I560824
asg6
I1
sg7
(lp2480
I416249
asg9
I560824
sg10
F6.7000000000000002
sg11
F6.7000000000000002
sg12
(lp2481
I0
asg14
(lp2482
F6.7000000000000002
asg16
F560824
ssS'0036349'
p2483
(dp2484
g4
(lp2485
I663246
asg6
I1
sg7
(lp2486
I340485
asg9
I663246
sg10
F7
sg11
F7
sg12
(lp2487
I0
asg14
(lp2488
F7
asg16
F663246
ssS'1347153'
p2489
(dp2490
g4
(lp2491
I73206343
asg6
I1
sg7
(lp2492
I380124
asg9
I73206343
sg10
F4.7000000000000002
sg11
F4.7000000000000002
sg12
(lp2493
I0
asg14
(lp2494
F4.7000000000000002
asg16
F73206343
ssS'1325899'
p2495
(dp2496
g4
(lp2497
I48023088
asg6
I1
sg7
(lp2498
I313297
asg9
I48023088
sg10
F7.9000000000000004
sg11
F7.9000000000000004
sg12
(lp2499
I60000000
asg14
(lp2500
F7.9000000000000004
asg16
F48023088
ssS'0513005'
p2501
(dp2502
g4
(lp2503
I35839
asg6
I1
sg7
(lp2504
I424632
asg9
I35839
sg10
F7.7999999999999998
sg11
F7.7999999999999998
sg12
(lp2505
I0
asg14
(lp2506
F7.7999999999999998
asg16
F35839
ssS'6717822'
p2507
(dp2508
g4
(lp2509
I3232685
asg6
I1
sg7
(lp2510
I459037
asg9
I3232685
sg10
F3.7000000000000002
sg11
F3.7000000000000002
sg12
(lp2511
I0
asg14
(lp2512
F3.7000000000000002
asg16
F3232685
ssS'0824882'
p2513
(dp2514
g4
(lp2515
I10938134
asg6
I1
sg7
(lp2516
I58431
asg9
I10938134
sg10
F5.7999999999999998
sg11
F5.7999999999999998
sg12
(lp2517
I28000000
asg14
(lp2518
F5.7999999999999998
asg16
F10938134
ssS'1519252'
p2519
(dp2520
g4
(lp2521
I615816
asg6
I1
sg7
(lp2522
I308453
asg9
I615816
sg10
F6
sg11
F6
sg12
(lp2523
I3500000
asg14
(lp2524
F6
asg16
F615816
ssS'1083489'
p2525
(dp2526
g4
(lp2527
I8821329
asg6
I1
sg7
(lp2528
I234004
asg9
I8821329
sg10
F5.5999999999999996
sg11
F5.5999999999999996
sg12
(lp2529
I20000000
asg14
(lp2530
F5.5999999999999996
asg16
F8821329
ssS'3163794'
p2531
(dp2532
g4
(lp2533
I3903095
asg6
I1
sg7
(lp2534
I366080
asg9
I3903095
sg10
F6.5999999999999996
sg11
F6.5999999999999996
sg12
(lp2535
I14000000
asg14
(lp2536
F6.5999999999999996
asg16
F3903095
ssS'7267981'
p2537
(dp2538
g4
(lp2539
I27477
asg6
I1
sg7
(lp2540
I362178
asg9
I27477
sg10
F7.2000000000000002
sg11
F7.2000000000000002
sg12
(lp2541
I0
asg14
(lp2542
F7.2000000000000002
asg16
F27477
ssS'0640334'
p2543
(dp2544
g4
(lp2545
I1513793
aI86260045
asg6
I2
sg7
(lp2546
I174751
aI302946
asg9
I87773838
sg10
F6.6500000000000004
sg11
F13.300000000000001
sg12
(lp2547
I25000000
aI44000000
asg14
(lp2548
F5.9000000000000004
aF7.4000000000000004
asg16
F43886919
ssS'6649966'
p2549
(dp2550
g4
(lp2551
I828278
asg6
I1
sg7
(lp2552
I409255
asg9
I828278
sg10
F7
sg11
F7
sg12
(lp2553
I0
asg14
(lp2554
F7
asg16
F828278
ssS'0002657'
p2555
(dp2556
g4
(lp2557
I20810036
asg6
I1
sg7
(lp2558
I316152
asg9
I20810036
sg10
F6.9000000000000004
sg11
F6.9000000000000004
sg12
(lp2559
I65000000
asg14
(lp2560
F6.9000000000000004
asg16
F20810036
ssS'0220600'
p2561
(dp2562
g4
(lp2563
I232641920
asg6
I1
sg7
(lp2564
I284052
asg9
I232641920
sg10
F7.5999999999999996
sg11
F7.5999999999999996
sg12
(lp2565
I165000000
asg14
(lp2566
F7.5999999999999996
asg16
F232641920
ssS'1503575'
p2567
(dp2568
g4
(lp2569
I27854932
asg6
I1
sg7
(lp2570
I376867
asg9
I27854932
sg10
F7.5
sg11
F7.5
sg12
(lp2571
I1500000
asg14
(lp2572
F7.5
asg16
F27854932
ssS'0584439'
p2573
(dp2574
g4
(lp2575
I23986
asg6
I1
sg7
(lp2576
I426193
asg9
I23986
sg10
F3.6000000000000001
sg11
F3.6000000000000001
sg12
(lp2577
I0
asg14
(lp2578
F3.6000000000000001
asg16
F23986
ssS'0001053'
p2579
(dp2580
g4
(lp2581
I30498085
asg6
I1
sg7
(lp2582
I270487
asg9
I30498085
sg10
F6.2999999999999998
sg11
F6.2999999999999998
sg12
(lp2583
I22000000
asg14
(lp2584
F6.2999999999999998
asg16
F30498085
ssS'3613566'
p2585
(dp2586
g4
(lp2587
I2129768
asg6
I1
sg7
(lp2588
I396535
asg9
I2129768
sg10
F7.5
sg11
F7.5
sg12
(lp2589
I0
asg14
(lp2590
F7.5
asg16
F2129768
ssS'0001054'
p2591
(dp2592
g4
(lp2593
I30498085
asg6
I1
sg7
(lp2594
I270487
asg9
I30498085
sg10
F6.2999999999999998
sg11
F6.2999999999999998
sg12
(lp2595
I22000000
asg14
(lp2596
F6.2999999999999998
asg16
F30498085
ssS'2078406'
p2597
(dp2598
g4
(lp2599
I466505
asg6
I1
sg7
(lp2600
I421928
asg9
I466505
sg10
F6.9000000000000004
sg11
F6.9000000000000004
sg12
(lp2601
I0
asg14
(lp2602
F6.9000000000000004
asg16
F466505
ssS'0743671'
p2603
(dp2604
g4
(lp2605
I5879736
asg6
I1
sg7
(lp2606
I334533
asg9
I5879736
sg10
F7.9000000000000004
sg11
F7.9000000000000004
sg12
(lp2607
I5000000
asg14
(lp2608
F7.9000000000000004
asg16
F5879736
ssS'0000500'
p2609
(dp2610
g4
(lp2611
I3400278
asg6
I1
sg7
(lp2612
I295699
asg9
I3400278
sg10
F7
sg11
F7
sg12
(lp2613
I10000000
asg14
(lp2614
F7
asg16
F3400278
ssS'0743676'
p2615
(dp2616
g4
(lp2617
I9188
asg6
I1
sg7
(lp2618
I316021
asg9
I9188
sg10
F6
sg11
F6
sg12
(lp2619
I0
asg14
(lp2620
F6
asg16
F9188
ssS'0716980'
p2621
(dp2622
g4
(lp2623
I1068054
asg6
I1
sg7
(lp2624
I340487
asg9
I1068054
sg10
F6.5999999999999996
sg11
F6.5999999999999996
sg12
(lp2625
I0
asg14
(lp2626
F6.5999999999999996
asg16
F1068054
ssS'1512910'
p2627
(dp2628
g4
(lp2629
I47365290
asg6
I1
sg7
(lp2630
I68735
asg9
I47365290
sg10
F7
sg11
F7
sg12
(lp2631
I160000000
asg14
(lp2632
F7
asg16
F47365290
ssS'0862911'
p2633
(dp2634
g4
(lp2635
I97685686
asg6
I1
sg7
(lp2636
I223702
asg9
I97685686
sg10
F6.2999999999999998
sg11
F6.2999999999999998
sg12
(lp2637
I19000000
asg14
(lp2638
F6.2999999999999998
asg16
F97685686
ssS'5794009'
p2639
(dp2640
g4
(lp2641
I350456
asg6
I1
sg7
(lp2642
I369552
asg9
I350456
sg10
F4.5
sg11
F4.5
sg12
(lp2643
I0
asg14
(lp2644
F4.5
asg16
F350456
ssS'4856396'
p2645
(dp2646
g4
(lp2647
I419952
asg6
I1
sg7
(lp2648
I401032
asg9
I419952
sg10
F2.7999999999999998
sg11
F2.7999999999999998
sg12
(lp2649
I0
asg14
(lp2650
F2.7999999999999998
asg16
F419952
ssS'5675244'
p2651
(dp2652
g4
(lp2653
I100546139
asg6
I1
sg7
(lp2654
I401867
asg9
I100546139
sg10
F7.0999999999999996
sg11
F7.0999999999999996
sg12
(lp2655
I0
asg14
(lp2656
F7.0999999999999996
asg16
F100546139
ssS'4112608'
p2657
(dp2658
g4
(lp2659
I341268248
asg6
I1
sg7
(lp2660
I391711
asg9
I341268248
sg10
F8.5
sg11
F8.5
sg12
(lp2661
I0
asg14
(lp2662
F8.5
asg16
F341268248
ssS'0000487'
p2663
(dp2664
g4
(lp2665
I1738477
asg6
I1
sg7
(lp2666
I293767
asg9
I1738477
sg10
F6.2999999999999998
sg11
F6.2999999999999998
sg12
(lp2667
I40000000
asg14
(lp2668
F6.2999999999999998
asg16
F1738477
ssS'0000881'
p2669
(dp2670
g4
(lp2671
I52853219
asg6
I1
sg7
(lp2672
I300671
asg9
I52853219
sg10
F7.2999999999999998
sg11
F7.2999999999999998
sg12
(lp2673
I50000000
asg14
(lp2674
F7.2999999999999998
asg16
F52853219
ssS'0839064'
p2675
(dp2676
g4
(lp2677
I31886361
asg6
I1
sg7
(lp2678
I418693
asg9
I31886361
sg10
F8
sg11
F8
sg12
(lp2679
I0
asg14
(lp2680
F8
asg16
F31886361
ssS'1346713'
p2681
(dp2682
g4
(lp2683
I12450
asg6
I1
sg7
(lp2684
I370978
asg9
I12450
sg10
F6.5999999999999996
sg11
F6.5999999999999996
sg12
(lp2685
I0
asg14
(lp2686
F6.5999999999999996
asg16
F12450
ssS'0304541'
p2687
(dp2688
g4
(lp2689
I21218403
asg6
I1
sg7
(lp2690
I278924
asg9
I21218403
sg10
F5.5999999999999996
sg11
F5.5999999999999996
sg12
(lp2691
I40000000
asg14
(lp2692
F5.5999999999999996
asg16
F21218403
ssS'3563067'
p2693
(dp2694
g4
(lp2695
I97477
asg6
I1
sg7
(lp2696
I385137
asg9
I97477
sg10
F6.7000000000000002
sg11
F6.7000000000000002
sg12
(lp2697
I0
asg14
(lp2698
F6.7000000000000002
asg16
F97477
ssS'3241497'
p2699
(dp2700
g4
(lp2701
I28041
asg6
I1
sg7
(lp2702
I309024
asg9
I28041
sg10
F6
sg11
F6
sg12
(lp2703
I0
asg14
(lp2704
F6
asg16
F28041
ssS'4273756'
p2705
(dp2706
g4
(lp2707
I30142
asg6
I1
sg7
(lp2708
I406099
asg9
I30142
sg10
F5.5999999999999996
sg11
F5.5999999999999996
sg12
(lp2709
I0
asg14
(lp2710
F5.5999999999999996
asg16
F30142
ssS'1887480'
p2711
(dp2712
g4
(lp2713
I20555
asg6
I1
sg7
(lp2714
I333675
asg9
I20555
sg10
F6
sg11
F6
sg12
(lp2715
I0
asg14
(lp2716
F6
asg16
F20555
ssS'0000154'
p2717
(dp2718
g4
(lp2719
I67209615
asg6
I1
sg7
(lp2720
I324786
asg9
I67209615
sg10
F8.1999999999999993
sg11
F8.1999999999999993
sg12
(lp2721
I40000000
asg14
(lp2722
F8.1999999999999993
asg16
F67209615
ssS'3147562'
p2723
(dp2724
g4
(lp2725
I52482
asg6
I1
sg7
(lp2726
I276537
asg9
I52482
sg10
F7.4000000000000004
sg11
F7.4000000000000004
sg12
(lp2727
I0
asg14
(lp2728
F7.4000000000000004
asg16
F52482
ssS'5023548'
p2729
(dp2730
g4
(lp2731
I356255
asg6
I1
sg7
(lp2732
I421742
asg9
I356255
sg10
F7.4000000000000004
sg11
F7.4000000000000004
sg12
(lp2733
I0
asg14
(lp2734
F7.4000000000000004
asg16
F356255
ssS'0000095'
p2735
(dp2736
g4
(lp2737
I11103205
asg6
I1
sg7
(lp2738
I339397
asg9
I11103205
sg10
F6.7000000000000002
sg11
F6.7000000000000002
sg12
(lp2739
I30000000
asg14
(lp2740
F6.7000000000000002
asg16
F11103205
ssS'0134682'
p2741
(dp2742
g4
(lp2743
I62578
asg6
I1
sg7
(lp2744
I411201
asg9
I62578
sg10
F7.9000000000000004
sg11
F7.9000000000000004
sg12
(lp2745
I0
asg14
(lp2746
F7.9000000000000004
asg16
F62578
ssS'1746070'
p2747
(dp2748
g4
(lp2749
I128350574
asg6
I1
sg7
(lp2750
I401887
asg9
I128350574
sg10
F6.7999999999999998
sg11
F6.7999999999999998
sg12
(lp2751
I0
asg14
(lp2752
F6.7999999999999998
asg16
F128350574
ssS'0122741'
p2753
(dp2754
g4
(lp2755
I13960394
asg6
I1
sg7
(lp2756
I391305
asg9
I13960394
sg10
F8.0999999999999996
sg11
F8.0999999999999996
sg12
(lp2757
I0
asg14
(lp2758
F8.0999999999999996
asg16
F13960394
ssS'0000255'
p2759
(dp2760
g4
(lp2761
I10378555
asg6
I1
sg7
(lp2762
I259695
asg9
I10378555
sg10
F6.4000000000000004
sg11
F6.4000000000000004
sg12
(lp2763
I65000000
asg14
(lp2764
F6.4000000000000004
asg16
F10378555
ssS'5366685'
p2765
(dp2766
g4
(lp2767
I55511
asg6
I1
sg7
(lp2768
I373355
asg9
I55511
sg10
F6.5
sg11
F6.5
sg12
(lp2769
I0
asg14
(lp2770
F6.5
asg16
F55511
ssS'0823721'
p2771
(dp2772
g4
(lp2773
I8005586
asg6
I1
sg7
(lp2774
I368940
asg9
I8005586
sg10
F5.2999999999999998
sg11
F5.2999999999999998
sg12
(lp2775
I13500000
asg14
(lp2776
F5.2999999999999998
asg16
F8005586
ssS'4135794'
p2777
(dp2778
g4
(lp2779
I675
asg6
I1
sg7
(lp2780
I381255
asg9
I675
sg10
F5.9000000000000004
sg11
F5.9000000000000004
sg12
(lp2781
I0
asg14
(lp2782
F5.9000000000000004
asg16
F675
ssS'2609593'
p2783
(dp2784
g4
(lp2785
I60197
asg6
I1
sg7
(lp2786
I357799
asg9
I60197
sg10
F6.7999999999999998
sg11
F6.7999999999999998
sg12
(lp2787
I0
asg14
(lp2788
F6.7999999999999998
asg16
F60197
ssS'0726638'
p2789
(dp2790
g4
(lp2791
I61705123
asg6
I1
sg7
(lp2792
I339984
asg9
I61705123
sg10
F7
sg11
F7
sg12
(lp2793
I16000000
asg14
(lp2794
F7
asg16
F61705123
ssS'1029961'
p2795
(dp2796
g4
(lp2797
I91151
asg6
I1
sg7
(lp2798
I352890
asg9
I91151
sg10
F6.2000000000000002
sg11
F6.2000000000000002
sg12
(lp2799
I0
asg14
(lp2800
F6.2000000000000002
asg16
F91151
ss.