(dp1
VSci-Fi
p2
(dp3
S'gross'
p4
(lp5
I54647948
aI158848340
aI330360194
aI8821329
aI3712282
aI66184051
aI408084349
aI100014699
aI64063008
aI1186426
aI232641920
aI325100054
aI177404
aI33258
aI82051601
aI1918403
aI79213375
aI63014
aI10232
aI72082998
aI4218
aI105036
aI190581
aI269980
aI981947
aI850
aI10104
aI103144286
aI568876
aI532177324
aI11239
asS'movie_count'
p6
I31
sS'movie_id'
p7
(lp8
I121856
aI188927
aI209112
aI234004
aI245703
aI262504
aI271110
aI274870
aI278154
aI279096
aI284052
aI297761
aI299687
aI301875
aI308531
aI315011
aI316727
aI320146
aI328429
aI333371
aI339116
aI366099
aI372752
aI390734
aI392344
aI401061
aI401123
aI401132
aI405757
aI431575
aI444106
asS'gross_sum'
p9
I2626679326
sS'imdb_rating_avg'
p10
F6.0419354838709669
sS'imdb_rating_sum'
p11
F187.29999999999998
sS'budget'
p12
(lp13
I125000000
aI185000000
aI250000000
aI20000000
aI18000000
aI110000000
aI250000000
aI110000000
aI105000000
aI50000
aI165000000
aI175000000
aI38000000
aI0
aI135000000
aI15000000
aI10000000
aI1000000
aI0
aI15000000
aI0
aI0
aI0
aI0
aI527784
aI0
aI0
aI500000
aI0
aI0
aI0
asS'imdb_rating'
p14
(lp15
F5.9000000000000004
aF7.0999999999999996
aF6.7000000000000002
aF5.5999999999999996
aF6.7000000000000002
aF5.7000000000000002
aF7.9000000000000004
aF7
aF5.7000000000000002
aF5.5999999999999996
aF7.5999999999999996
aF6.2000000000000002
aF5.2000000000000002
aF6.0999999999999996
aF6
aF6.7999999999999998
aF6
aF5.5
aF4.7999999999999998
aF7.2000000000000002
aF3.7999999999999998
aF3.6000000000000001
aF8
aF6.9000000000000004
aF5.2000000000000002
aF4.0999999999999996
aF6.4000000000000004
aF1.8999999999999999
aF7
aF7.0999999999999996
aF8
asS'gross_avg'
p16
F84731591.161290318
ssVCrime
p17
(dp18
g4
(lp19
I12639297
aI3153157
aI17368022
aI21256
aI10378555
aI62524260
aI13191
aI1124045
aI21218403
aI36261763
aI53647
aI65075540
aI89217875
aI127440871
aI86260045
aI41012075
aI2915
aI43034523
aI3220371
aI9188
aI3127773
aI14073
aI15436808
aI544098
aI38583626
aI20555
aI29747603
aI27007844
aI17782178
aI58697076
aI75395035
aI939101
aI7138
aI3903095
aI182695
aI4772155
aI857986
aI74712
aI1087419
aI1499605
aI455
aI219401
aI117755
aI175702
aI82778
aI560824
aI159305
asg6
I47
sg7
(lp20
I146198
aI205588
aI213681
aI257440
aI259695
aI267860
aI274504
aI275269
aI278924
aI290250
aI291356
aI291805
aI300669
aI302699
aI302946
aI303858
aI305943
aI308266
aI313922
aI316021
aI317930
aI322548
aI325789
aI326285
aI328387
aI333675
aI335791
aI338766
aI338964
aI343611
aI346685
aI351454
aI362478
aI366080
aI370464
aI372411
aI378092
aI390584
aI392572
aI393765
aI404279
aI404579
aI408106
aI408620
aI415634
aI416249
aI428929
asg9
I901025794
sg10
F6.2191489361702121
sg11
F292.29999999999995
sg12
(lp21
I28000000
aI0
aI52000000
aI0
aI65000000
aI60000000
aI0
aI5200000
aI40000000
aI50000000
aI0
aI90000000
aI9900000
aI50000000
aI44000000
aI27000000
aI0
aI40000000
aI5000000
aI0
aI3000000
aI0
aI25000000
aI0
aI20000000
aI0
aI0
aI12000000
aI26000000
aI68000000
aI45000000
aI0
aI0
aI14000000
aI0
aI0
aI0
aI0
aI1000000
aI0
aI0
aI0
aI0
aI0
aI0
aI0
aI0
asg14
(lp22
F6.2999999999999998
aF6.2000000000000002
aF5.7999999999999998
aF5.5
aF6.4000000000000004
aF5.9000000000000004
aF5.2000000000000002
aF7.2000000000000002
aF5.5999999999999996
aF7.4000000000000004
aF6
aF6.5
aF7.2000000000000002
aF6.2999999999999998
aF7.4000000000000004
aF6.5
aF5.2000000000000002
aF7.0999999999999996
aF7
aF6
aF4.7000000000000002
aF4.7999999999999998
aF7.0999999999999996
aF6.0999999999999996
aF6.5999999999999996
aF6
aF4.7999999999999998
aF7.7000000000000002
aF5.5
aF6.0999999999999996
aF6.5
aF7.2000000000000002
aF6.2000000000000002
aF6.5999999999999996
aF4.7000000000000002
aF5.4000000000000004
aF3.8999999999999999
aF5.5999999999999996
aF7.0999999999999996
aF5.9000000000000004
aF5.9000000000000004
aF5.9000000000000004
aF8.0999999999999996
aF6.5
aF6.9000000000000004
aF6.7000000000000002
aF7.0999999999999996
asg16
F19170761.574468084
ssVRomance
p23
(dp24
g4
(lp25
I10938134
aI24252420
aI126643061
aI46843513
aI151101803
aI100014699
aI12545979
aI2006788
aI3652206
aI56245075
aI14016568
aI1646788
aI33258
aI59689605
aI26409
aI6304223
aI3351735
aI2610896
aI9188
aI46009673
aI14073
aI146487
aI1016985
aI4267218
aI2341534
aI11103205
aI7710234
aI3401155
aI31016021
aI30169
aI91151
aI29495
aI8840
aI3237118
aI40098064
aI2152738
aI12450
aI2607036
aI528799
aI52713
aI9669521
aI50839
aI321910
aI675
aI22121
aI7162
aI59425
aI438207
aI1326999
aI981947
aI4264983
aI1499605
aI34694
aI15395
aI498000
aI897876
aI1264339
aI1490948
aI351840
aI828278
aI78578
aI2376479
aI2242
aI35839
aI94326
asg6
I65
sg7
(lp26
I58431
aI95610
aI258489
aI259694
aI269573
aI274870
aI283552
aI290098
aI291328
aI296096
aI296360
aI297806
aI301875
aI302688
aI303854
aI310888
aI312669
aI316000
aI316021
aI316023
aI322548
aI324289
aI325346
aI337154
aI338778
aI339397
aI339419
aI340611
aI345920
aI352162
aI352890
aI361191
aI367493
aI369557
aI369885
aI370755
aI370978
aI374173
aI376047
aI377154
aI378200
aI379887
aI380121
aI381255
aI381418
aI383208
aI385962
aI391629
aI391779
aI392344
aI393445
aI393765
aI395181
aI397517
aI399624
aI400247
aI402672
aI405604
aI406042
aI409255
aI409289
aI413543
aI415613
aI424632
aI429645
asg9
I804419734
sg10
F6.3953846153846134
sg11
F415.69999999999987
sg12
(lp27
I28000000
aI35000000
aI180000000
aI38000000
aI0
aI110000000
aI20000000
aI8575000
aI26700000
aI20000000
aI3000000
aI13000000
aI0
aI18000000
aI0
aI0
aI0
aI0
aI0
aI33000000
aI0
aI0
aI0
aI0
aI0
aI30000000
aI9000000
aI0
aI36000000
aI0
aI0
aI0
aI0
aI4000000
aI85000000
aI5000000
aI0
aI0
aI0
aI0
aI0
aI0
aI0
aI0
aI0
aI0
aI0
aI0
aI0
aI527784
aI0
aI0
aI0
aI0
aI0
aI0
aI15050000
aI0
aI0
aI0
aI0
aI4300000
aI0
aI0
aI0
asg14
(lp28
F5.7999999999999998
aF6.5999999999999996
aF6.2999999999999998
aF6.0999999999999996
aF5.5
aF7
aF7.2000000000000002
aF8.0999999999999996
aF5.7000000000000002
aF7.4000000000000004
aF6.5
aF5.7000000000000002
aF6.0999999999999996
aF6
aF5.7999999999999998
aF6.5999999999999996
aF6.2000000000000002
aF6.4000000000000004
aF6
aF6
aF4.7999999999999998
aF6.0999999999999996
aF6.5
aF6.2999999999999998
aF6.7000000000000002
aF6.7000000000000002
aF7
aF6.9000000000000004
aF6.7999999999999998
aF6.7000000000000002
aF6.2000000000000002
aF8.8000000000000007
aF7.7000000000000002
aF8
aF7.0999999999999996
aF7.4000000000000004
aF6.5999999999999996
aF7.7999999999999998
aF5.4000000000000004
aF7.2000000000000002
aF4.9000000000000004
aF6.7000000000000002
aF4.7000000000000002
aF5.9000000000000004
aF7.2999999999999998
aF5.5
aF6.7999999999999998
aF5.2000000000000002
aF5.2000000000000002
aF5.2000000000000002
aF5.7999999999999998
aF5.9000000000000004
aF6.4000000000000004
aF6.0999999999999996
aF3.7000000000000002
aF7.0999999999999996
aF6
aF8.1999999999999993
aF6.4000000000000004
aF7
aF5.2000000000000002
aF7.7999999999999998
aF7.4000000000000004
aF7.7999999999999998
aF3.7999999999999998
asg16
F12375688.215384616
ssVAnimation
p29
(dp30
g4
(lp31
I143528619
aI107509366
aI97685686
aI8821329
aI17062499
aI248757044
aI64063008
aI48023088
aI72679278
aI8005586
aI350456
aI190581
aI269980
aI368384330
aI700723
aI486295561
aI532177324
aI3232685
asg6
I18
sg7
(lp32
I140300
aI153518
aI223702
aI234004
aI276905
aI277834
aI278154
aI313297
aI332210
aI368940
aI369552
aI372752
aI390734
aI403052
aI425694
aI427004
aI431575
aI459037
asg9
I2207737143
sg10
F6.333333333333333
sg11
F114
sg12
(lp33
I145000000
aI73000000
aI19000000
aI20000000
aI18000000
aI150000000
aI105000000
aI60000000
aI70000000
aI13500000
aI0
aI0
aI0
aI0
aI0
aI0
aI0
aI0
asg14
(lp34
F7.2000000000000002
aF6.2999999999999998
aF6.2999999999999998
aF5.5999999999999996
aF3.7000000000000002
aF7.7000000000000002
aF5.7000000000000002
aF7.9000000000000004
aF6.9000000000000004
aF5.2999999999999998
aF4.5
aF8
aF6.9000000000000004
aF6.7000000000000002
aF8.5999999999999996
aF5.9000000000000004
aF7.0999999999999996
aF3.7000000000000002
asg16
F122652063.5
ssVMusic
p35
(dp36
g4
(lp37
I15073
aI1646788
aI2610896
aI2394386
aI8277
aI20431
aI60197
aI1176781
aI3237118
aI355074
aI45270
aI7162
aI2930414
aI440627
aI25531
aI3915251
aI242867
aI27383770
asg6
I18
sg7
(lp38
I296879
aI297806
aI316000
aI318226
aI324421
aI341012
aI357799
aI358923
aI369557
aI373479
aI376391
aI383208
aI391698
aI392820
aI403517
aI411020
aI412924
aI430081
asg9
I46515913
sg10
F6.8833333333333346
sg11
F123.90000000000002
sg12
(lp39
I0
aI13000000
aI0
aI10000000
aI0
aI0
aI0
aI0
aI4000000
aI0
aI0
aI0
aI0
aI0
aI0
aI0
aI0
aI0
asg14
(lp40
F7.0999999999999996
aF5.7000000000000002
aF6.4000000000000004
aF6.2000000000000002
aF7.0999999999999996
aF6.7000000000000002
aF6.7999999999999998
aF7.7000000000000002
aF8
aF7.4000000000000004
aF7.9000000000000004
aF5.5
aF7.9000000000000004
aF7.2000000000000002
aF5.0999999999999996
aF7.2000000000000002
aF7.9000000000000004
aF6.0999999999999996
asg16
F2584217.388888889
ssVComedy
p41
(dp42
g4
(lp43
I24252420
aI143528619
aI107509366
aI17368022
aI97685686
aI8821329
aI46843513
aI6874837
aI4212494
aI30498085
aI17062499
aI248757044
aI64063008
aI1186426
aI23083334
aI36261763
aI262921
aI3652206
aI65075540
aI35593113
aI14218
aI3400278
aI14016568
aI650465
aI230069
aI1055287
aI59689605
aI127440871
aI26409
aI1978592
aI43034523
aI615816
aI82051601
aI3351735
aI46009673
aI3127773
aI15789389
aI45878
aI19700032
aI91221830
aI144822
aI8277
aI55455765
aI1016985
aI470575
aI1598
aI54030051
aI28848693
aI14904426
aI5777
aI72679278
aI18006
aI20555
aI5879736
aI4267218
aI17782178
aI4218
aI11103205
aI23591043
aI42065185
aI20431
aI20591853
aI5664764
aI1741889
aI4611
aI4210454
aI32919
aI11686940
aI91151
aI4417667
aI60323786
aI29495
aI43403
aI60289
aI8005586
aI3237118
aI20007149
aI2152738
aI12450
aI91441
aI5205468
aI47258
aI4772155
aI228894
aI2607036
aI685780
aI1479387
aI11528613
aI113257297
aI14431633
aI9097072
aI9669521
aI50839
aI321910
aI73206343
aI310
aI7162
aI303002
aI54767494
aI97477
aI9033
aI1326999
aI981947
aI5844
aI15395
aI6208
aI498000
aI436798
aI897876
aI850
aI621738
aI368384330
aI19033
aI6639
aI82703
aI351840
aI30142
aI40598
aI828278
aI78578
aI39928
aI153707064
aI356255
aI466505
aI10844
aI1659002
aI20017
aI486295561
aI532177324
asg6
I129
sg7
(lp44
I95610
aI140300
aI153518
aI213681
aI223702
aI234004
aI259694
aI267193
aI270010
aI270487
aI276905
aI277834
aI278154
aI279096
aI279641
aI290250
aI291264
aI291328
aI291805
aI291870
aI292834
aI295699
aI296360
aI296867
aI299641
aI301348
aI302688
aI302699
aI303854
aI303991
aI308266
aI308453
aI308531
aI312669
aI316023
aI317930
aI319888
aI320413
aI322240
aI323675
aI323929
aI324421
aI325133
aI325346
aI326094
aI326256
aI326423
aI329833
aI331313
aI331393
aI332210
aI332665
aI333675
aI334533
aI337154
aI338964
aI339116
aI339397
aI339927
aI340402
aI341012
aI342521
aI342737
aI345912
aI346134
aI347031
aI351242
aI351819
aI352890
aI356298
aI356305
aI361191
aI363185
aI364540
aI368940
aI369557
aI369883
aI370755
aI370978
aI371449
aI371645
aI371865
aI372411
aI374052
aI374173
aI374461
aI374475
aI375794
aI376659
aI376660
aI377587
aI378200
aI379887
aI380121
aI380124
aI380879
aI383208
aI383869
aI384682
aI385137
aI386040
aI391779
aI392344
aI395177
aI397517
aI399231
aI399624
aI400114
aI400247
aI401061
aI402976
aI403052
aI403857
aI404073
aI404378
aI406042
aI406099
aI406992
aI409255
aI409289
aI410348
aI421268
aI421742
aI421928
aI422231
aI423412
aI424388
aI427004
aI431575
asg9
I3821886542
sg10
F6.1410852713178326
sg11
F792.20000000000039
sg12
(lp45
I35000000
aI145000000
aI73000000
aI52000000
aI19000000
aI20000000
aI38000000
aI35000000
aI30000000
aI22000000
aI18000000
aI150000000
aI105000000
aI50000
aI35000000
aI50000000
aI0
aI26700000
aI90000000
aI11500000
aI0
aI10000000
aI3000000
aI0
aI2500000
aI0
aI18000000
aI50000000
aI0
aI0
aI40000000
aI3500000
aI135000000
aI0
aI33000000
aI3000000
aI23000000
aI0
aI30000000
aI40000000
aI0
aI0
aI35000000
aI0
aI0
aI0
aI20
aI50000000
aI40000000
aI0
aI70000000
aI0
aI0
aI5000000
aI0
aI26000000
aI0
aI30000000
aI0
aI17000000
aI0
aI15000000
aI7000000
aI0
aI0
aI3000000
aI0
aI20000000
aI0
aI0
aI38000000
aI0
aI0
aI1150118
aI13500000
aI4000000
aI8500000
aI5000000
aI0
aI0
aI0
aI0
aI0
aI0
aI0
aI8000000
aI3000000
aI0
aI20000000
aI9000000
aI0
aI0
aI0
aI0
aI0
aI0
aI0
aI8600000
aI45000000
aI0
aI0
aI0
aI527784
aI0
aI0
aI0
aI0
aI0
aI0
aI0
aI0
aI0
aI0
aI0
aI8000000
aI0
aI0
aI0
aI0
aI0
aI0
aI0
aI0
aI0
aI800
aI0
aI0
aI0
aI0
asg14
(lp46
F6.5999999999999996
aF7.2000000000000002
aF6.2999999999999998
aF5.7999999999999998
aF6.2999999999999998
aF5.5999999999999996
aF6.0999999999999996
aF6.2000000000000002
aF6.0999999999999996
aF6.2999999999999998
aF3.7000000000000002
aF7.7000000000000002
aF5.7000000000000002
aF5.5999999999999996
aF6.5999999999999996
aF7.4000000000000004
aF6.0999999999999996
aF5.7000000000000002
aF6.5
aF6
aF4.7999999999999998
aF7
aF6.5
aF7.2999999999999998
aF5.4000000000000004
aF6.4000000000000004
aF6
aF6.2999999999999998
aF5.7999999999999998
aF7
aF7.0999999999999996
aF6
aF6
aF6.2000000000000002
aF6
aF4.7000000000000002
aF7.4000000000000004
aF5.7000000000000002
aF5.2999999999999998
aF5.9000000000000004
aF7.0999999999999996
aF7.0999999999999996
aF5.7000000000000002
aF6.5
aF5.9000000000000004
aF5.5
aF5.9000000000000004
aF4.7000000000000002
aF5.7999999999999998
aF6.2000000000000002
aF6.9000000000000004
aF5.4000000000000004
aF6
aF7.9000000000000004
aF6.2999999999999998
aF5.5
aF3.7999999999999998
aF6.7000000000000002
aF5.7999999999999998
aF6
aF6.7000000000000002
aF6.2999999999999998
aF7.4000000000000004
aF5.7000000000000002
aF6.2999999999999998
aF7
aF6.0999999999999996
aF3.5
aF6.2000000000000002
aF6.7999999999999998
aF6.2999999999999998
aF8.8000000000000007
aF2.2999999999999998
aF6.2999999999999998
aF5.2999999999999998
aF8
aF6.0999999999999996
aF7.4000000000000004
aF6.5999999999999996
aF6.7000000000000002
aF7.9000000000000004
aF6.0999999999999996
aF5.4000000000000004
aF6.2000000000000002
aF7.7999999999999998
aF7.7000000000000002
aF7.5999999999999996
aF5.7000000000000002
aF6.2000000000000002
aF7.4000000000000004
aF5.7999999999999998
aF4.9000000000000004
aF6.7000000000000002
aF4.7000000000000002
aF4.7000000000000002
aF6.2000000000000002
aF5.5
aF5.7999999999999998
aF5.7999999999999998
aF6.7000000000000002
aF8.4000000000000004
aF5.2000000000000002
aF5.2000000000000002
aF7.4000000000000004
aF6.0999999999999996
aF6.5
aF3.7000000000000002
aF7
aF7.0999999999999996
aF4.0999999999999996
aF5.5
aF6.7000000000000002
aF4.5
aF4.5999999999999996
aF7.4000000000000004
aF6.4000000000000004
aF5.5999999999999996
aF5.5999999999999996
aF7
aF5.2000000000000002
aF6.5
aF5.9000000000000004
aF7.4000000000000004
aF6.9000000000000004
aF4.7999999999999998
aF4.9000000000000004
aF6
aF5.9000000000000004
aF7.0999999999999996
asg16
F29627027.457364339
ssVWar
p47
(dp48
g4
(lp49
I23083334
aI1738477
aI52853219
aI43034523
aI20810036
aI67209615
aI2964845
aI40098064
aI31900
aI1023348
asg6
I10
sg7
(lp50
I279641
aI293767
aI300671
aI308266
aI316152
aI324786
aI351339
aI369885
aI375012
aI407887
asg9
I252847361
sg10
F6.9899999999999993
sg11
F69.899999999999991
sg12
(lp51
I35000000
aI40000000
aI50000000
aI40000000
aI65000000
aI40000000
aI9000000
aI85000000
aI0
aI0
asg14
(lp52
F6.5999999999999996
aF6.2999999999999998
aF7.2999999999999998
aF7.0999999999999996
aF6.9000000000000004
aF8.1999999999999993
aF7.2000000000000002
aF7.0999999999999996
aF7
aF6.2000000000000002
asg16
F25284736.100000001
ssVHorror
p53
(dp54
g4
(lp55
I10938134
aI4799774
aI10753574
aI102470008
aI2423468
aI89217875
aI104038
aI3220371
aI1918403
aI79213375
aI45878
aI55124043
aI72082998
aI6900335
aI29747603
aI35144505
aI11287
aI6332
aI20777061
aI8074
aI27099
aI228894
aI31900
aI9097072
aI73206343
aI18319
aI34343574
aI43955
aI2129768
aI252
aI621738
aI7100177
aI12544
aI23986
asg6
I34
sg7
(lp56
I58431
aI241258
aI257345
aI259693
aI293452
aI300669
aI301365
aI313922
aI315011
aI316727
aI320413
aI332567
aI333371
aI333674
aI335791
aI335796
aI339547
aI347127
aI351211
aI364116
aI371560
aI374052
aI375012
aI377587
aI380124
aI384687
aI393544
aI394051
aI396535
aI400411
aI402976
aI412471
aI419979
aI426193
asg9
I651792757
sg10
F5.644117647058823
sg11
F191.89999999999998
sg12
(lp57
I28000000
aI5000000
aI4000000
aI40000000
aI15000000
aI9900000
aI7000000
aI5000000
aI15000000
aI10000000
aI0
aI17000000
aI15000000
aI0
aI0
aI9000000
aI0
aI0
aI5000000
aI0
aI0
aI0
aI0
aI0
aI0
aI0
aI3000
aI0
aI0
aI0
aI0
aI250000
aI0
aI0
asg14
(lp58
F5.7999999999999998
aF5.2000000000000002
aF4.2999999999999998
aF7.4000000000000004
aF3.8999999999999999
aF7.2000000000000002
aF6.2000000000000002
aF7
aF6.7999999999999998
aF6
aF5.7000000000000002
aF6.4000000000000004
aF7.2000000000000002
aF5.7000000000000002
aF4.7999999999999998
aF6.0999999999999996
aF4.7000000000000002
aF4.7000000000000002
aF5
aF5.2999999999999998
aF6.2000000000000002
aF6.2000000000000002
aF7
aF5.7999999999999998
aF4.7000000000000002
aF3.6000000000000001
aF9
aF5.2000000000000002
aF7.5
aF3.7000000000000002
aF5.5
aF3.2000000000000002
aF5.2999999999999998
aF3.6000000000000001
asg16
F19170375.205882352
ssVAdventure
p59
(dp60
g4
(lp61
I47365290
aI54647948
aI143528619
aI107509366
aI158848340
aI31153464
aI330360194
aI97685686
aI8821329
aI77041381
aI126643061
aI234037575
aI66184051
aI6874837
aI55483770
aI408084349
aI100014699
aI52482
aI17062499
aI248757044
aI64063008
aI21218403
aI87242834
aI232641920
aI48390190
aI65075540
aI76233151
aI325100054
aI177404
aI82051601
aI48023088
aI1918403
aI46009673
aI38583626
aI72679278
aI93432655
aI20555
aI36880033
aI4218
aI58697076
aI4210454
aI3903095
aI8005586
aI5205468
aI190581
aI3169351
aI269980
aI1264339
aI40598
aI800012
asg6
I50
sg7
(lp62
I68735
aI121856
aI140300
aI153518
aI188927
aI205584
aI209112
aI223702
aI234004
aI241259
aI258489
aI259316
aI262504
aI267193
aI267935
aI271110
aI274870
aI276537
aI276905
aI277834
aI278154
aI278924
aI283366
aI284052
aI290595
aI291805
aI294272
aI297761
aI299687
aI308531
aI313297
aI315011
aI316023
aI328387
aI332210
aI333484
aI333675
aI335778
aI339116
aI343611
aI347031
aI366080
aI368940
aI371645
aI372752
aI376530
aI390734
aI402672
aI406992
aI415214
asg9
I3745658158
sg10
F6.458000000000002
sg11
F322.90000000000009
sg12
(lp63
I160000000
aI125000000
aI145000000
aI73000000
aI185000000
aI140000000
aI250000000
aI19000000
aI20000000
aI170000000
aI180000000
aI180000000
aI110000000
aI35000000
aI140000000
aI250000000
aI110000000
aI0
aI18000000
aI150000000
aI105000000
aI40000000
aI110000000
aI165000000
aI115000000
aI90000000
aI65000000
aI175000000
aI38000000
aI135000000
aI60000000
aI15000000
aI33000000
aI20000000
aI70000000
aI90000000
aI0
aI20000000
aI0
aI68000000
aI3000000
aI14000000
aI13500000
aI0
aI0
aI0
aI0
aI15050000
aI0
aI0
asg14
(lp64
F7
aF5.9000000000000004
aF7.2000000000000002
aF6.2999999999999998
aF7.0999999999999996
aF5.5
aF6.7000000000000002
aF6.2999999999999998
aF5.5999999999999996
aF6.2000000000000002
aF6.2999999999999998
aF7.4000000000000004
aF5.7000000000000002
aF6.2000000000000002
aF6.4000000000000004
aF7.9000000000000004
aF7
aF7.4000000000000004
aF3.7000000000000002
aF7.7000000000000002
aF5.7000000000000002
aF5.5999999999999996
aF6.7000000000000002
aF7.5999999999999996
aF6.0999999999999996
aF6.5
aF6.7999999999999998
aF6.2000000000000002
aF5.2000000000000002
aF6
aF7.9000000000000004
aF6.7999999999999998
aF6
aF6.5999999999999996
aF6.9000000000000004
aF6.9000000000000004
aF6
aF6.2999999999999998
aF3.7999999999999998
aF6.0999999999999996
aF7
aF6.5999999999999996
aF5.2999999999999998
aF7.9000000000000004
aF8
aF7.5999999999999996
aF6.9000000000000004
aF6
aF5.5999999999999996
aF6.7999999999999998
asg16
F74913163.159999996
ssVNews
p65
(dp66
g4
(lp67
I27284
aI153707064
asg6
I2
sg7
(lp68
I373481
aI421268
asg9
I153734348
sg10
F6.4500000000000002
sg11
F12.9
sg12
(lp69
I0
aI0
asg14
(lp70
F7
aF5.9000000000000004
asg16
F76867174
ssVThriller
p71
(dp72
g4
(lp73
I12639297
aI158848340
aI3153157
aI4799774
aI3712282
aI10753574
aI21256
aI102470008
aI66184051
aI62524260
aI13191
aI1124045
aI26799
aI21218403
aI2006788
aI36261763
aI53647
aI65075540
aI2423468
aI61433527
aI24852
aI177404
aI89217875
aI52853219
aI27569558
aI104038
aI21587519
aI86260045
aI41012075
aI2915
aI3220371
aI9188
aI79213375
aI15436808
aI38583626
aI10232
aI55124043
aI72082998
aI6900335
aI20555
aI29747603
aI35144505
aI22267
aI27007844
aI4218
aI25564
aI10663357
aI58697076
aI75395035
aI6332
aI20777061
aI2964845
aI541719
aI114959
aI3903095
aI105036
aI40098064
aI55511
aI3500605
aI13450
aI1585687
aI331507
aI857986
aI7476
aI18319
aI17102
aI59425
aI779818
aI1087419
aI1499605
aI43955
aI2129768
aI897876
aI419952
aI10104
aI29259
aI219401
aI568876
aI9995
aI175702
aI159305
asg6
I81
sg7
(lp74
I146198
aI188927
aI205588
aI241258
aI245703
aI257345
aI257440
aI259693
aI262504
aI267860
aI274504
aI275269
aI277710
aI278924
aI290098
aI290250
aI291356
aI291805
aI293452
aI296524
aI296865
aI299687
aI300669
aI300671
aI300673
aI301365
aI302401
aI302946
aI303858
aI305943
aI313922
aI316021
aI316727
aI325789
aI328387
aI328429
aI332567
aI333371
aI333674
aI333675
aI335791
aI335796
aI337515
aI338766
aI339116
aI340484
aI340666
aI343611
aI346685
aI347127
aI351211
aI351339
aI363579
aI364160
aI366080
aI366099
aI369885
aI373355
aI376290
aI376565
aI376869
aI377213
aI378092
aI382653
aI384687
aI385737
aI385962
aI388403
aI392572
aI393765
aI394051
aI396535
aI400247
aI401032
aI401123
aI402193
aI404579
aI405757
aI406298
aI408620
aI428929
asg9
I1523850884
sg10
F6.185185185185186
sg11
F501.00000000000006
sg12
(lp75
I28000000
aI185000000
aI0
aI5000000
aI18000000
aI4000000
aI0
aI40000000
aI110000000
aI60000000
aI0
aI5200000
aI0
aI40000000
aI8575000
aI50000000
aI0
aI90000000
aI15000000
aI110000000
aI0
aI38000000
aI9900000
aI50000000
aI80000000
aI7000000
aI40000000
aI44000000
aI27000000
aI0
aI5000000
aI0
aI10000000
aI25000000
aI20000000
aI0
aI17000000
aI15000000
aI0
aI0
aI0
aI9000000
aI0
aI12000000
aI0
aI0
aI22500000
aI68000000
aI45000000
aI0
aI5000000
aI9000000
aI8620000
aI0
aI14000000
aI0
aI85000000
aI0
aI13000000
aI12823507
aI10721568
aI5069632
aI0
aI0
aI0
aI0
aI0
aI0
aI1000000
aI0
aI0
aI0
aI0
aI0
aI0
aI0
aI0
aI0
aI0
aI0
aI0
asg14
(lp76
F6.2999999999999998
aF7.0999999999999996
aF6.2000000000000002
aF5.2000000000000002
aF6.7000000000000002
aF4.2999999999999998
aF5.5
aF7.4000000000000004
aF5.7000000000000002
aF5.9000000000000004
aF5.2000000000000002
aF7.2000000000000002
aF6.0999999999999996
aF5.5999999999999996
aF8.0999999999999996
aF7.4000000000000004
aF6
aF6.5
aF3.8999999999999999
aF7.2000000000000002
aF6.5
aF5.2000000000000002
aF7.2000000000000002
aF7.2999999999999998
aF6.7999999999999998
aF6.2000000000000002
aF7.2999999999999998
aF7.4000000000000004
aF6.5
aF5.2000000000000002
aF7
aF6
aF6
aF7.0999999999999996
aF6.5999999999999996
aF4.7999999999999998
aF6.4000000000000004
aF7.2000000000000002
aF5.7000000000000002
aF6
aF4.7999999999999998
aF6.0999999999999996
aF6.0999999999999996
aF7.7000000000000002
aF3.7999999999999998
aF6.2999999999999998
aF7.5
aF6.0999999999999996
aF6.5
aF4.7000000000000002
aF5
aF7.2000000000000002
aF7.2000000000000002
aF5.2000000000000002
aF6.5999999999999996
aF3.6000000000000001
aF7.0999999999999996
aF6.5
aF7.4000000000000004
aF6.4000000000000004
aF7.7999999999999998
aF7.2000000000000002
aF3.8999999999999999
aF7
aF3.6000000000000001
aF5.7000000000000002
aF6.7999999999999998
aF6.5999999999999996
aF7.0999999999999996
aF5.9000000000000004
aF5.2000000000000002
aF7.5
aF7.0999999999999996
aF2.7999999999999998
aF6.4000000000000004
aF4.2000000000000002
aF5.9000000000000004
aF7
aF6
aF6.5
aF7.0999999999999996
asg16
F18812973.876543209
ssVWestern
p77
(dp78
g4
(lp79
I1513793
aI53647
aI93432655
aI27007844
asg6
I4
sg7
(lp80
I174751
aI291356
aI333484
aI338766
asg9
I122007939
sg10
F6.625
sg11
F26.5
sg12
(lp81
I25000000
aI0
aI90000000
aI12000000
asg14
(lp82
F5.9000000000000004
aF6
aF6.9000000000000004
aF7.7000000000000002
asg16
F30501984.75
ssVMystery
p83
(dp84
g4
(lp85
I3712282
aI102470008
aI66184051
aI30498085
aI1124045
aI2006788
aI36261763
aI262921
aI65075540
aI9188
aI38583626
aI72082998
aI36880033
aI29747603
aI22267
aI58697076
aI75395035
aI27477
aI105036
aI613956
aI187145
aI331507
aI43955
aI67054
aI897876
aI159305
asg6
I26
sg7
(lp86
I245703
aI259693
aI262504
aI270487
aI275269
aI290098
aI290250
aI291264
aI291805
aI316021
aI328387
aI333371
aI335778
aI335791
aI337515
aI343611
aI346685
aI362178
aI366099
aI373072
aI373476
aI377213
aI394051
aI394170
aI400247
aI428929
asg9
I621446620
sg10
F6.4576923076923061
sg11
F167.89999999999995
sg12
(lp87
I18000000
aI40000000
aI110000000
aI22000000
aI5200000
aI8575000
aI50000000
aI0
aI90000000
aI0
aI20000000
aI15000000
aI20000000
aI0
aI0
aI68000000
aI45000000
aI0
aI0
aI0
aI0
aI5069632
aI0
aI0
aI0
aI0
asg14
(lp88
F6.7000000000000002
aF7.4000000000000004
aF5.7000000000000002
aF6.2999999999999998
aF7.2000000000000002
aF8.0999999999999996
aF7.4000000000000004
aF6.0999999999999996
aF6.5
aF6
aF6.5999999999999996
aF7.2000000000000002
aF6.2999999999999998
aF4.7999999999999998
aF6.0999999999999996
aF6.0999999999999996
aF6.5
aF7.2000000000000002
aF3.6000000000000001
aF7.5999999999999996
aF5.4000000000000004
aF7.2000000000000002
aF5.2000000000000002
aF6.5
aF7.0999999999999996
aF7.0999999999999996
asg16
F23901793.076923076
ssVShort
p89
(dp90
g4
(lp91
I34343574
aI100546139
aI128350574
aI368384330
aI568876
aI55409
aI3755
aI486295561
aI532177324
aI11239
asg6
I10
sg7
(lp92
I393544
aI401867
aI401887
aI403052
aI405757
aI417198
aI420591
aI427004
aI431575
aI444106
asg9
I1650736781
sg10
F7.3499999999999996
sg11
F73.5
sg12
(lp93
I3000
aI0
aI0
aI0
aI0
aI0
aI0
aI0
aI0
aI0
asg14
(lp94
F9
aF7.0999999999999996
aF6.7999999999999998
aF6.7000000000000002
aF7
aF8.0999999999999996
aF7.7999999999999998
aF5.9000000000000004
aF7.0999999999999996
aF8
asg16
F165073678.09999999
ssVDrama
p95
(dp96
g4
(lp97
I32492859
aI54647948
aI12639297
aI1513793
aI4712792
aI66680
aI3153157
aI3712282
aI49979
aI57527
aI21256
aI3740823
aI126643061
aI10378555
aI1361045
aI62524260
aI151101803
aI4212494
aI13191
aI100014699
aI1124045
aI26799
aI23083334
aI87242834
aI12545979
aI2006788
aI48390190
aI262921
aI3652206
aI20444
aI53647
aI13931
aI2423468
aI1738477
aI56245075
aI14016568
aI61433527
aI24852
aI650465
aI15073
aI1646788
aI52853219
aI27569558
aI18137
aI33258
aI21587519
aI86260045
aI26409
aI41012075
aI1978592
aI2915
aI43034523
aI615816
aI28041
aI6304223
aI3351735
aI26734
aI1918403
aI2610896
aI9188
aI20810036
aI8874389
aI6490401
aI15789389
aI63014
aI14073
aI19206207
aI144822
aI146487
aI67209615
aI1016985
aI15436808
aI470575
aI1598
aI544098
aI54030051
aI10232
aI5777
aI55124043
aI18006
aI5083906
aI36885
aI72082998
aI6900335
aI5879736
aI47695371
aI51728731
aI36880033
aI29747603
aI200242
aI4267218
aI22267
aI23020
aI27007844
aI2341534
aI17782178
aI11103205
aI15861566
aI7710234
aI61705123
aI42065185
aI25564
aI663246
aI1068054
aI3401155
aI10663357
aI60438
aI5664764
aI31016021
aI4611
aI75395035
aI4210454
aI1605463
aI20774575
aI32919
aI939101
aI30169
aI91151
aI11722
aI3866794
aI4417667
aI15587
aI12391761
aI27477
aI7138
aI541719
aI125070033
aI1065665
aI114959
aI3903095
aI105036
aI3289
aI75526
aI8840
aI3237118
aI40098064
aI182695
aI119100
aI2152738
aI91441
aI86800
aI27099
aI5205468
aI702537
aI187145
aI27284
aI2607036
aI38578
aI685780
aI388140
aI1479387
aI528799
aI3500605
aI13450
aI14431633
aI27854932
aI1585687
aI52713
aI331507
aI285930
aI675
aI169345656
aI22121
aI25358
aI11678
aI386540
aI303002
aI208611
aI125616
aI18319
aI17102
aI1801550
aI74712
aI269980
aI1326999
aI981947
aI1087419
aI4264983
aI71451
aI1499605
aI2129768
aI15395
aI150191
aI498000
aI436798
aI419952
aI100546139
aI1264339
aI25531
aI19033
aI455
aI82703
aI219401
aI568876
aI40598
aI1023348
aI117755
aI21626
aI175702
aI828278
aI2082980
aI34034
aI3915251
aI2376479
aI35322
aI2242
aI744541
aI560824
aI21497
aI3755
aI890303
aI20017
aI35839
aI159305
aI27383770
aI76931
asg6
I216
sg7
(lp98
I109453
aI121856
aI146198
aI174751
aI184341
aI196359
aI205588
aI245703
aI245913
aI257258
aI257440
aI258230
aI258489
aI259695
aI267192
aI267860
aI269573
aI270010
aI274504
aI274870
aI275269
aI277710
aI279641
aI283366
aI283552
aI290098
aI290595
aI291264
aI291328
aI291351
aI291356
aI291871
aI293452
aI293767
aI296096
aI296360
aI296524
aI296865
aI296867
aI296879
aI297806
aI300671
aI300673
aI301339
aI301875
aI302401
aI302946
aI303854
aI303858
aI303991
aI305943
aI308266
aI308453
aI309024
aI310888
aI312669
aI314029
aI315011
aI316000
aI316021
aI316152
aI317557
aI318850
aI319888
aI320146
aI322548
aI323677
aI323929
aI324289
aI324786
aI325346
aI325789
aI326094
aI326256
aI326285
aI326423
aI328429
aI331393
aI332567
aI332665
aI332979
aI332996
aI333371
aI333674
aI334533
aI334541
aI334543
aI335778
aI335791
aI336011
aI337154
aI337515
aI337874
aI338766
aI338778
aI338964
aI339397
aI339408
aI339419
aI339984
aI340402
aI340484
aI340485
aI340487
aI340611
aI340666
aI342165
aI342737
aI345920
aI346134
aI346685
aI347031
aI347033
aI347126
aI351242
aI351454
aI352162
aI352890
aI353259
aI353326
aI356298
aI356901
aI360814
aI362178
aI362478
aI363579
aI363676
aI364051
aI364160
aI366080
aI366099
aI366324
aI367206
aI367493
aI369557
aI369885
aI370464
aI370654
aI370755
aI371449
aI371463
aI371560
aI371645
aI373473
aI373476
aI373481
aI374173
aI374440
aI374461
aI374465
aI374475
aI376047
aI376290
aI376565
aI376660
aI376867
aI376869
aI377154
aI377213
aI377273
aI381255
aI381284
aI381418
aI382054
aI382455
aI382572
aI383869
aI384547
aI384641
aI384687
aI385737
aI388333
aI390584
aI390734
aI391779
aI392344
aI392572
aI393445
aI393603
aI393765
aI396535
aI397517
aI398541
aI399624
aI400114
aI401032
aI401867
aI402672
aI403517
aI403857
aI404279
aI404378
aI404579
aI405757
aI406992
aI407887
aI408106
aI408508
aI408620
aI409255
aI409502
aI410882
aI411020
aI413543
aI413730
aI415613
aI415636
aI416249
aI418697
aI420591
aI423628
aI424388
aI424632
aI428929
aI430081
aI449173
asg9
I2632392371
sg10
F6.4657407407407392
sg11
F1396.5999999999997
sg12
(lp99
I0
aI125000000
aI28000000
aI25000000
aI20000000
aI0
aI0
aI18000000
aI0
aI0
aI0
aI43000000
aI180000000
aI65000000
aI0
aI60000000
aI0
aI30000000
aI0
aI110000000
aI5200000
aI0
aI35000000
aI110000000
aI20000000
aI8575000
aI115000000
aI0
aI26700000
aI0
aI0
aI0
aI15000000
aI40000000
aI20000000
aI3000000
aI110000000
aI0
aI0
aI0
aI13000000
aI50000000
aI80000000
aI0
aI0
aI40000000
aI44000000
aI0
aI27000000
aI0
aI0
aI40000000
aI3500000
aI0
aI0
aI0
aI1500000
aI15000000
aI0
aI0
aI65000000
aI0
aI18500000
aI23000000
aI1000000
aI0
aI5000000
aI0
aI0
aI40000000
aI0
aI25000000
aI0
aI0
aI0
aI20
aI0
aI0
aI17000000
aI0
aI6000000
aI0
aI15000000
aI0
aI5000000
aI8500000
aI12000000
aI20000000
aI0
aI700000
aI0
aI0
aI0
aI12000000
aI0
aI26000000
aI30000000
aI8500000
aI9000000
aI16000000
aI17000000
aI0
aI0
aI0
aI0
aI22500000
aI0
aI7000000
aI36000000
aI0
aI45000000
aI3000000
aI0
aI0
aI0
aI0
aI0
aI0
aI0
aI0
aI0
aI0
aI10400000
aI0
aI0
aI8620000
aI60000000
aI6000000
aI0
aI14000000
aI0
aI0
aI0
aI0
aI4000000
aI85000000
aI0
aI0
aI5000000
aI0
aI0
aI0
aI0
aI0
aI0
aI0
aI0
aI0
aI8000000
aI2100000
aI3000000
aI0
aI13000000
aI12823507
aI9000000
aI1500000
aI10721568
aI0
aI5069632
aI762241
aI0
aI25000000
aI0
aI0
aI0
aI0
aI8600000
aI0
aI0
aI0
aI0
aI0
aI0
aI0
aI0
aI527784
aI1000000
aI0
aI0
aI0
aI0
aI0
aI0
aI0
aI0
aI0
aI0
aI15050000
aI0
aI0
aI0
aI8000000
aI0
aI0
aI0
aI0
aI0
aI0
aI0
aI0
aI1500000
aI0
aI0
aI4300000
aI0
aI0
aI0
aI0
aI0
aI0
aI3500000
aI0
aI0
aI0
aI0
aI0
asg14
(lp100
F4.9000000000000004
aF5.9000000000000004
aF6.2999999999999998
aF5.9000000000000004
aF6.5999999999999996
aF6.2999999999999998
aF6.2000000000000002
aF6.7000000000000002
aF7.2999999999999998
aF6.7999999999999998
aF5.5
aF7.5
aF6.2999999999999998
aF6.4000000000000004
aF6.5
aF5.9000000000000004
aF5.5
aF6.0999999999999996
aF5.2000000000000002
aF7
aF7.2000000000000002
aF6.0999999999999996
aF6.5999999999999996
aF6.7000000000000002
aF7.2000000000000002
aF8.0999999999999996
aF6.0999999999999996
aF6.0999999999999996
aF5.7000000000000002
aF5.9000000000000004
aF6
aF4.7999999999999998
aF3.8999999999999999
aF6.2999999999999998
aF7.4000000000000004
aF6.5
aF7.2000000000000002
aF6.5
aF7.2999999999999998
aF7.0999999999999996
aF5.7000000000000002
aF7.2999999999999998
aF6.7999999999999998
aF6.2999999999999998
aF6.0999999999999996
aF7.2999999999999998
aF7.4000000000000004
aF5.7999999999999998
aF6.5
aF7
aF5.2000000000000002
aF7.0999999999999996
aF6
aF6
aF6.5999999999999996
aF6.2000000000000002
aF6.9000000000000004
aF6.7999999999999998
aF6.4000000000000004
aF6
aF6.9000000000000004
aF7.4000000000000004
aF5.5
aF7.4000000000000004
aF5.5
aF4.7999999999999998
aF7.0999999999999996
aF7.0999999999999996
aF6.0999999999999996
aF8.1999999999999993
aF6.5
aF7.0999999999999996
aF5.9000000000000004
aF5.5
aF6.0999999999999996
aF5.9000000000000004
aF4.7999999999999998
aF6.2000000000000002
aF6.4000000000000004
aF5.4000000000000004
aF6.7999999999999998
aF6.9000000000000004
aF7.2000000000000002
aF5.7000000000000002
aF7.9000000000000004
aF7.9000000000000004
aF8.0999999999999996
aF6.2999999999999998
aF4.7999999999999998
aF5.7999999999999998
aF6.2999999999999998
aF6.0999999999999996
aF5.7999999999999998
aF7.7000000000000002
aF6.7000000000000002
aF5.5
aF6.7000000000000002
aF6.2999999999999998
aF7
aF7
aF6
aF6.2999999999999998
aF7
aF6.5999999999999996
aF6.9000000000000004
aF7.5
aF6.7000000000000002
aF7.4000000000000004
aF6.7999999999999998
aF6.2999999999999998
aF6.5
aF7
aF5.5999999999999996
aF4.2999999999999998
aF6.0999999999999996
aF7.2000000000000002
aF6.7000000000000002
aF6.2000000000000002
aF7
aF7.2000000000000002
aF6.7999999999999998
aF4.4000000000000004
aF8.6999999999999993
aF7.2000000000000002
aF6.2000000000000002
aF7.2000000000000002
aF7.5
aF7.4000000000000004
aF5.2000000000000002
aF6.5999999999999996
aF3.6000000000000001
aF4.7999999999999998
aF6.0999999999999996
aF7.7000000000000002
aF8
aF7.0999999999999996
aF4.7000000000000002
aF7
aF7.4000000000000004
aF6.7000000000000002
aF7.0999999999999996
aF6.2000000000000002
aF7.9000000000000004
aF6.7999999999999998
aF5.4000000000000004
aF7
aF7.7999999999999998
aF5.7000000000000002
aF7.7000000000000002
aF7.0999999999999996
aF7.5999999999999996
aF5.4000000000000004
aF7.4000000000000004
aF6.4000000000000004
aF7.4000000000000004
aF7.5
aF7.7999999999999998
aF7.2000000000000002
aF7.2000000000000002
aF7.7000000000000002
aF5.9000000000000004
aF7.7999999999999998
aF7.2999999999999998
aF4.2999999999999998
aF6.9000000000000004
aF7.0999999999999996
aF5.7999999999999998
aF7.5999999999999996
aF7
aF3.6000000000000001
aF5.7000000000000002
aF7.7999999999999998
aF5.5999999999999996
aF6.9000000000000004
aF5.2000000000000002
aF5.2000000000000002
aF7.0999999999999996
aF5.7999999999999998
aF6
aF5.9000000000000004
aF7.5
aF6.0999999999999996
aF6.7000000000000002
aF3.7000000000000002
aF7
aF2.7999999999999998
aF7.0999999999999996
aF6
aF5.0999999999999996
aF4.5
aF5.9000000000000004
aF7.4000000000000004
aF5.9000000000000004
aF7
aF5.5999999999999996
aF6.2000000000000002
aF8.0999999999999996
aF7.2999999999999998
aF6.5
aF7
aF5.5
aF5.5
aF7.2000000000000002
aF7.7999999999999998
aF5.5999999999999996
aF7.4000000000000004
aF5.2000000000000002
aF6.7000000000000002
aF7.7000000000000002
aF7.7999999999999998
aF4.5999999999999996
aF6
aF7.7999999999999998
aF7.0999999999999996
aF6.0999999999999996
aF7.5999999999999996
asg16
F12187001.717592593
ssVAction
p101
(dp102
g4
(lp103
I10938134
aI47365290
aI54647948
aI143528619
aI12639297
aI107509366
aI1513793
aI4712792
aI158848340
aI31153464
aI330360194
aI17368022
aI8821329
aI126643061
aI66184051
aI6874837
aI62524260
aI408084349
aI1124045
aI21218403
aI1186426
aI232641920
aI36261763
aI48390190
aI53647
aI65075540
aI61433527
aI325100054
aI177404
aI52853219
aI27569558
aI127440871
aI86260045
aI82051601
aI1918403
aI20810036
aI79213375
aI3127773
aI91221830
aI14904426
aI93432655
aI36880033
aI4218
aI20591853
aI58697076
aI11722
aI12391761
aI541719
aI114959
aI3903095
aI75526
aI40098064
aI182695
aI190581
aI13450
aI269980
aI438207
aI1326999
aI1087419
aI67054
aI316554
aI2129768
aI897876
aI850
aI10104
aI103144286
aI29259
aI1264339
aI25531
aI219401
aI30142
aI181633
aI40598
aI1023348
aI175702
aI270329045
aI800012
aI560824
aI466505
aI94326
aI76931
asg6
I81
sg7
(lp104
I58431
aI68735
aI121856
aI140300
aI146198
aI153518
aI174751
aI184341
aI188927
aI205584
aI209112
aI213681
aI234004
aI258489
aI262504
aI267193
aI267860
aI271110
aI275269
aI278924
aI279096
aI284052
aI290250
aI290595
aI291356
aI291805
aI296524
aI297761
aI299687
aI300671
aI300673
aI302699
aI302946
aI308531
aI315011
aI316152
aI316727
aI317930
aI323675
aI331313
aI333484
aI335778
aI339116
aI342521
aI343611
aI353259
aI360814
aI363579
aI364160
aI366080
aI367206
aI369885
aI370464
aI372752
aI376565
aI390734
aI391629
aI391779
aI392572
aI394170
aI395938
aI396535
aI400247
aI401061
aI401123
aI401132
aI402193
aI402672
aI403517
aI404579
aI406099
aI406429
aI406992
aI407887
aI408620
aI413198
aI415214
aI416249
aI421928
aI429645
aI449173
asg9
I3631887302
sg10
F6.1740740740740749
sg11
F500.10000000000008
sg12
(lp105
I28000000
aI160000000
aI125000000
aI145000000
aI28000000
aI73000000
aI25000000
aI20000000
aI185000000
aI140000000
aI250000000
aI52000000
aI20000000
aI180000000
aI110000000
aI35000000
aI60000000
aI250000000
aI5200000
aI40000000
aI50000
aI165000000
aI50000000
aI115000000
aI0
aI90000000
aI110000000
aI175000000
aI38000000
aI50000000
aI80000000
aI50000000
aI44000000
aI135000000
aI15000000
aI65000000
aI10000000
aI3000000
aI40000000
aI40000000
aI90000000
aI20000000
aI0
aI15000000
aI68000000
aI0
aI10400000
aI8620000
aI0
aI14000000
aI0
aI85000000
aI0
aI0
aI12823507
aI0
aI0
aI0
aI1000000
aI0
aI0
aI0
aI0
aI0
aI0
aI500000
aI0
aI15050000
aI0
aI0
aI0
aI38000000
aI0
aI0
aI0
aI32000000
aI0
aI0
aI0
aI0
aI0
asg14
(lp106
F5.7999999999999998
aF7
aF5.9000000000000004
aF7.2000000000000002
aF6.2999999999999998
aF6.2999999999999998
aF5.9000000000000004
aF6.5999999999999996
aF7.0999999999999996
aF5.5
aF6.7000000000000002
aF5.7999999999999998
aF5.5999999999999996
aF6.2999999999999998
aF5.7000000000000002
aF6.2000000000000002
aF5.9000000000000004
aF7.9000000000000004
aF7.2000000000000002
aF5.5999999999999996
aF5.5999999999999996
aF7.5999999999999996
aF7.4000000000000004
aF6.0999999999999996
aF6
aF6.5
aF7.2000000000000002
aF6.2000000000000002
aF5.2000000000000002
aF7.2999999999999998
aF6.7999999999999998
aF6.2999999999999998
aF7.4000000000000004
aF6
aF6.7999999999999998
aF6.9000000000000004
aF6
aF4.7000000000000002
aF5.9000000000000004
aF5.7999999999999998
aF6.9000000000000004
aF6.2999999999999998
aF3.7999999999999998
aF6.2999999999999998
aF6.0999999999999996
aF7
aF8.6999999999999993
aF7.2000000000000002
aF5.2000000000000002
aF6.5999999999999996
aF6.0999999999999996
aF7.0999999999999996
aF4.7000000000000002
aF8
aF6.4000000000000004
aF6.9000000000000004
aF5.2000000000000002
aF5.2000000000000002
aF7.0999999999999996
aF6.5
aF3.6000000000000001
aF7.5
aF7.0999999999999996
aF4.0999999999999996
aF6.4000000000000004
aF1.8999999999999999
aF4.2000000000000002
aF6
aF5.0999999999999996
aF5.9000000000000004
aF5.5999999999999996
aF4.7000000000000002
aF5.5999999999999996
aF6.2000000000000002
aF6.5
aF6.4000000000000004
aF6.7999999999999998
aF6.7000000000000002
aF6.9000000000000004
aF3.7999999999999998
aF7.5999999999999996
asg16
F44838114.839506172
ssVDocumentary
p107
(dp108
g4
(lp109
I52482
aI611702
aI2394386
aI8277
aI23591043
aI25564
aI11722
aI60197
aI1176781
aI594912
aI10999855
aI613956
aI70950
aI85999
aI55511
aI583664
aI18051
aI355074
aI27284
aI63241
aI1676108
aI36386
aI45270
aI3169351
aI102033
aI120933
aI109649
aI3016
aI8239
aI157481
aI18123
aI527474
aI72791
aI57635
aI1163265
aI13960394
aI34249
aI2930414
aI341268248
aI13099931
aI440627
aI67268835
aI11271
aI26410477
aI255388
aI18092
aI435266
aI3915251
aI62578
aI242867
aI106986
aI62279
aI55409
aI31886361
aI21497
aI149090
aI14393
aI18730891
aI25269
aI23538
aI19107
aI4073489
aI27383770
asg6
I63
sg7
(lp110
I276537
aI317954
aI318226
aI324421
aI339927
aI340484
aI353259
aI357799
aI358923
aI360030
aI365997
aI373072
aI373339
aI373348
aI373355
aI373446
aI373472
aI373479
aI373481
aI376257
aI376261
aI376263
aI376391
aI376530
aI376534
aI377151
aI380808
aI381021
aI381058
aI381275
aI384289
aI384573
aI390296
aI390396
aI390641
aI391305
aI391581
aI391698
aI391711
aI391995
aI392820
aI404729
aI404945
aI407391
aI407588
aI407803
aI408466
aI411020
aI411201
aI412924
aI413579
aI413782
aI417198
aI418693
aI418697
aI421851
aI422178
aI424807
aI425720
aI426546
aI428168
aI429002
aI430081
asg9
I601574372
sg10
F7.2301587301587302
sg11
F455.5
sg12
(lp111
I0
aI0
aI10000000
aI0
aI0
aI0
aI0
aI0
aI0
aI0
aI0
aI0
aI0
aI0
aI0
aI0
aI0
aI0
aI0
aI0
aI0
aI1600000
aI0
aI0
aI0
aI0
aI0
aI0
aI0
aI0
aI0
aI0
aI0
aI0
aI0
aI0
aI0
aI0
aI0
aI5000000
aI0
aI0
aI0
aI0
aI0
aI0
aI380000
aI0
aI0
aI0
aI0
aI0
aI0
aI0
aI0
aI0
aI0
aI0
aI0
aI0
aI1
aI790
aI0
asg14
(lp112
F7.4000000000000004
aF7.0999999999999996
aF6.2000000000000002
aF7.0999999999999996
aF5.7999999999999998
aF6.2999999999999998
aF7
aF6.7999999999999998
aF7.7000000000000002
aF7.0999999999999996
aF7.7000000000000002
aF7.5999999999999996
aF7.2000000000000002
aF7.2000000000000002
aF6.5
aF8.4000000000000004
aF7
aF7.4000000000000004
aF7
aF7
aF7.5999999999999996
aF6.9000000000000004
aF7.9000000000000004
aF7.5999999999999996
aF7.5
aF6.7999999999999998
aF7.7999999999999998
aF6.5999999999999996
aF6.7000000000000002
aF7.2999999999999998
aF7.2999999999999998
aF7.2000000000000002
aF7.0999999999999996
aF7.2000000000000002
aF5.7999999999999998
aF8.0999999999999996
aF7.2999999999999998
aF7.9000000000000004
aF8.5
aF5.5
aF7.2000000000000002
aF7.2000000000000002
aF6.9000000000000004
aF7.2999999999999998
aF7.5
aF7.2999999999999998
aF7.5999999999999996
aF7.2000000000000002
aF7.9000000000000004
aF7.9000000000000004
aF7.7999999999999998
aF7.4000000000000004
aF8.0999999999999996
aF8
aF7.7000000000000002
aF6
aF8.6999999999999993
aF7.7999999999999998
aF7
aF6.7999999999999998
aF6.5999999999999996
aF7.4000000000000004
aF6.0999999999999996
asg16
F9548799.555555556
ssVMusical
p113
(dp114
g4
(lp115
I248757044
aI22121
aI208611
aI744046
aI4264983
asg6
I5
sg7
(lp116
I277834
aI381418
aI384547
aI387026
aI393445
asg9
I253996805
sg10
F6.7400000000000002
sg11
F33.700000000000003
sg12
(lp117
I150000000
aI0
aI0
aI0
aI0
asg14
(lp118
F7.7000000000000002
aF7.2999999999999998
aF7.5999999999999996
aF5.2999999999999998
aF5.7999999999999998
asg16
F50799361
ssVHistory
p119
(dp120
g4
(lp121
I52482
aI52853219
aI27569558
aI1055287
aI6304223
aI20810036
aI8277
aI67209615
aI18006
aI15861566
aI2964845
aI939101
aI1065665
aI70950
aI27284
aI8239
aI157481
aI169345656
aI97477
aI57635
aI1264339
aI1023348
aI34034
aI3915251
aI3755
aI153707064
asg6
I26
sg7
(lp122
I276537
aI300671
aI300673
aI301348
aI310888
aI316152
aI324421
aI324786
aI332665
aI339408
aI351339
aI351454
aI364051
aI373339
aI373481
aI381058
aI381275
aI381284
aI385137
aI390396
aI402672
aI407887
aI410882
aI411020
aI420591
aI421268
asg9
I526424393
sg10
F6.8730769230769226
sg11
F178.69999999999999
sg12
(lp123
I0
aI50000000
aI80000000
aI0
aI0
aI65000000
aI0
aI40000000
aI0
aI8500000
aI9000000
aI0
aI6000000
aI0
aI0
aI0
aI0
aI25000000
aI0
aI0
aI15050000
aI0
aI0
aI0
aI0
aI0
asg14
(lp124
F7.4000000000000004
aF7.2999999999999998
aF6.7999999999999998
aF6.4000000000000004
aF6.5999999999999996
aF6.9000000000000004
aF7.0999999999999996
aF8.1999999999999993
aF5.4000000000000004
aF6.2999999999999998
aF7.2000000000000002
aF7.2000000000000002
aF7.4000000000000004
aF7.2000000000000002
aF7
aF6.7000000000000002
aF7.2999999999999998
aF7.7999999999999998
aF6.7000000000000002
aF7.2000000000000002
aF6
aF6.2000000000000002
aF5.5
aF7.2000000000000002
aF7.7999999999999998
aF5.9000000000000004
asg16
F20247092.03846154
ssVFamily
p125
(dp126
g4
(lp127
I143528619
aI107509366
aI8821329
aI77041381
aI234037575
aI55483770
aI17062499
aI248757044
aI64063008
aI87242834
aI76233151
aI650465
aI59689605
aI48023088
aI2394386
aI19700032
aI1598
aI72679278
aI2341534
aI61705123
aI60289
aI8005586
aI20007149
aI182695
aI702537
aI2000093
aI368384330
aI19033
aI82703
aI166425
aI486295561
aI532177324
asg6
I32
sg7
(lp128
I140300
aI153518
aI234004
aI241259
aI259316
aI267935
aI276905
aI277834
aI278154
aI283366
aI294272
aI296867
aI302688
aI313297
aI318226
aI322240
aI326256
aI332210
aI338778
aI339984
aI364540
aI368940
aI369883
aI370464
aI373473
aI379441
aI403052
aI403857
aI404378
aI407655
aI427004
aI431575
asg9
I2805049410
sg10
F6.3281250000000009
sg11
F202.50000000000003
sg12
(lp129
I145000000
aI73000000
aI20000000
aI170000000
aI180000000
aI140000000
aI18000000
aI150000000
aI105000000
aI110000000
aI65000000
aI0
aI18000000
aI60000000
aI10000000
aI30000000
aI0
aI70000000
aI0
aI16000000
aI1150118
aI13500000
aI8500000
aI0
aI0
aI0
aI0
aI0
aI8000000
aI0
aI0
aI0
asg14
(lp130
F7.2000000000000002
aF6.2999999999999998
aF5.5999999999999996
aF6.2000000000000002
aF7.4000000000000004
aF6.4000000000000004
aF3.7000000000000002
aF7.7000000000000002
aF5.7000000000000002
aF6.7000000000000002
aF6.7999999999999998
aF7.2999999999999998
aF6
aF7.9000000000000004
aF6.2000000000000002
aF5.2999999999999998
aF5.5
aF6.9000000000000004
aF6.7000000000000002
aF7
aF6.2999999999999998
aF5.2999999999999998
aF6.0999999999999996
aF4.7000000000000002
aF6.7999999999999998
aF7.2000000000000002
aF6.7000000000000002
aF4.5
aF7.4000000000000004
aF6
aF5.9000000000000004
aF7.0999999999999996
asg16
F87657794.0625
ssVFantasy
p131
(dp132
g4
(lp133
I47365290
aI54647948
aI143528619
aI31153464
aI97685686
aI77041381
aI3740823
aI234037575
aI55483770
aI248757044
aI87242834
aI232641920
aI48390190
aI76233151
aI325100054
aI48023088
aI19700032
aI72679278
aI4218
aI4210454
aI60289
aI350456
aI182695
aI190581
aI57759
aI59425
aI9033
aI269980
aI43955
aI29259
aI181633
aI166425
asg6
I32
sg7
(lp134
I68735
aI121856
aI140300
aI205584
aI223702
aI241259
aI258230
aI259316
aI267935
aI277834
aI283366
aI284052
aI290595
aI294272
aI297761
aI313297
aI322240
aI332210
aI339116
aI347031
aI364540
aI369552
aI370464
aI372752
aI382217
aI385962
aI386040
aI390734
aI394051
aI402193
aI406429
aI407655
asg9
I1909268309
sg10
F6.3906249999999991
sg11
F204.49999999999997
sg12
(lp135
I160000000
aI125000000
aI145000000
aI140000000
aI19000000
aI170000000
aI43000000
aI180000000
aI140000000
aI150000000
aI110000000
aI165000000
aI115000000
aI65000000
aI175000000
aI60000000
aI30000000
aI70000000
aI0
aI3000000
aI1150118
aI0
aI0
aI0
aI0
aI0
aI0
aI0
aI0
aI0
aI38000000
aI0
asg14
(lp136
F7
aF5.9000000000000004
aF7.2000000000000002
aF5.5
aF6.2999999999999998
aF6.2000000000000002
aF7.5
aF7.4000000000000004
aF6.4000000000000004
aF7.7000000000000002
aF6.7000000000000002
aF7.5999999999999996
aF6.0999999999999996
aF6.7999999999999998
aF6.2000000000000002
aF7.9000000000000004
aF5.2999999999999998
aF6.9000000000000004
aF3.7999999999999998
aF7
aF6.2999999999999998
aF4.5
aF4.7000000000000002
aF8
aF7.4000000000000004
aF6.7999999999999998
aF8.4000000000000004
aF6.9000000000000004
aF5.2000000000000002
aF4.2000000000000002
aF4.7000000000000002
aF6
asg16
F59664634.65625
ssVSport
p137
(dp138
g4
(lp139
I4712792
aI49979
aI8874389
aI15789389
aI19206207
aI5777
aI5083906
aI11722
aI12391761
aI3169351
aI2000093
aI1801550
aI94326
aI76931
asg6
I14
sg7
(lp140
I184341
aI245913
aI317557
aI319888
aI323677
aI331393
aI332979
aI353259
aI360814
aI376530
aI379441
aI388333
aI429645
aI449173
asg9
I73268173
sg10
F7.0357142857142847
sg11
F98.499999999999986
sg12
(lp141
I20000000
aI0
aI0
aI23000000
aI5000000
aI0
aI6000000
aI0
aI10400000
aI0
aI0
aI0
aI0
aI0
asg14
(lp142
F6.5999999999999996
aF7.2999999999999998
aF7.4000000000000004
aF7.4000000000000004
aF7.0999999999999996
aF6.2000000000000002
aF6.7999999999999998
aF7
aF8.6999999999999993
aF7.5999999999999996
aF7.2000000000000002
aF7.7999999999999998
aF3.7999999999999998
aF7.5999999999999996
asg16
F5233440.9285714282
ssVBiography
p143
(dp144
g4
(lp145
I4712792
aI49979
aI1361045
aI52482
aI23083334
aI1646788
aI21587519
aI6304223
aI2610896
aI20810036
aI8874389
aI611702
aI15789389
aI19206207
aI8277
aI67209615
aI15436808
aI5083906
aI51728731
aI15861566
aI7710234
aI61705123
aI25564
aI2964845
aI939101
aI3866794
aI12391761
aI125070033
aI182695
aI70950
aI355074
aI1585687
aI2000093
aI675
aI157481
aI169345656
aI56184
aI222565
aI1801550
aI13960394
aI4264983
aI82703
aI255388
aI117755
aI2082980
aI62578
aI3755
aI27383770
asg6
I48
sg7
(lp146
I184341
aI245913
aI267192
aI276537
aI279641
aI297806
aI302401
aI310888
aI316000
aI316152
aI317557
aI317954
aI319888
aI323677
aI324421
aI324786
aI325789
aI332979
aI334543
aI339408
aI339419
aI339984
aI340484
aI351339
aI351454
aI353326
aI360814
aI363676
aI370464
aI373339
aI373479
aI376869
aI379441
aI381255
aI381275
aI381284
aI382336
aI383354
aI388333
aI391305
aI393445
aI404378
aI407588
aI408106
aI409502
aI411201
aI420591
aI430081
asg9
I720696055
sg10
F7.0395833333333337
sg11
F337.90000000000003
sg12
(lp147
I20000000
aI0
aI0
aI0
aI35000000
aI13000000
aI40000000
aI0
aI0
aI65000000
aI0
aI0
aI23000000
aI5000000
aI0
aI40000000
aI25000000
aI6000000
aI12000000
aI8500000
aI9000000
aI16000000
aI0
aI9000000
aI0
aI0
aI10400000
aI60000000
aI0
aI0
aI0
aI10721568
aI0
aI0
aI0
aI25000000
aI0
aI0
aI0
aI0
aI0
aI8000000
aI0
aI0
aI1500000
aI0
aI0
aI0
asg14
(lp148
F6.5999999999999996
aF7.2999999999999998
aF6.5
aF7.4000000000000004
aF6.5999999999999996
aF5.7000000000000002
aF7.2999999999999998
aF6.5999999999999996
aF6.4000000000000004
aF6.9000000000000004
aF7.4000000000000004
aF7.0999999999999996
aF7.4000000000000004
aF7.0999999999999996
aF7.0999999999999996
aF8.1999999999999993
aF7.0999999999999996
aF6.7999999999999998
aF8.0999999999999996
aF6.2999999999999998
aF7
aF7
aF6.2999999999999998
aF7.2000000000000002
aF7.2000000000000002
aF7.2000000000000002
aF8.6999999999999993
aF7.5
aF4.7000000000000002
aF7.2000000000000002
aF7.4000000000000004
aF7.7999999999999998
aF7.2000000000000002
aF5.9000000000000004
aF7.2999999999999998
aF7.7999999999999998
aF7.5999999999999996
aF5
aF7.7999999999999998
aF8.0999999999999996
aF5.7999999999999998
aF7.4000000000000004
aF7.5
aF8.0999999999999996
aF5.5
aF7.9000000000000004
aF7.7999999999999998
aF6.0999999999999996
asg16
F15014501.145833334
ss.