(dp1
I423971
(dp2
S'gross'
p3
I334191110
sS'genres'
p4
(lp5
VMusical
p6
asS'name'
p7
VAlice in Wonderland
p8
sS'mpaa'
p9
NsS'imdb_id'
p10
Vtt2049386
p11
sS'director'
p12
(lp13
S'0288188'
p14
asS'cast'
p15
(lp16
S'4620163'
p17
aS'1431597'
p18
asS'imdb_rating'
p19
NsS'year'
p20
I2010
sS'opening_gross'
p21
I116101023
sS'opening_theathers'
p22
I3728
sS'runtime'
p23
I99
sS'id'
p24
I423971
ssI64956
(dp25
g3
I292576195
sg4
(lp26
VAction
p27
asg7
VInception: The Cobol Job
p28
sg9
Nsg10
Vtt1790736
p29
sg12
(lp30
S'1053991'
p31
asg15
Nsg19
F7.5999999999999996
sg20
I2010
sg21
I62785337
sg22
I3792
sg23
I15
sg24
I64956
ssI47626
(dp32
g3
I217581231
sg4
(lp33
VAnimation
p34
aVShort
p35
aVAdventure
p36
aVComedy
p37
aVFamily
p38
aVFantasy
p39
asg7
VLegend of the BoneKnapper Dragon
p40
sg9
Nsg10
Vtt1744776
p41
sg12
(lp42
S'1561257'
p43
asg15
(lp44
S'0059431'
p45
aS'0124930'
p46
aS'0272401'
p47
aS'1065229'
p48
aS'1706767'
p49
aS'2395586'
p50
aS'2554352'
p51
aS'1325419'
p52
aS'0224007'
p53
aS'0724656'
p54
asg19
F7.0999999999999996
sg20
I2010
sg21
I43732319
sg22
I4055
sg23
I16
sg24
I47626
ssI10192
(dp55
g3
I238736787
sg4
(lp56
VAnimation
p57
aVAdventure
p58
aVComedy
p59
aVFamily
p60
aVFantasy
p61
asg7
VShrek Forever After
p62
sg9
VRated PG for mild action, some rude humor and brief language
p63
sg10
Vtt0892791
p64
sg12
(lp65
S'0593610'
p66
asg15
(lp67
S'0000196'
p68
aS'0000552'
p69
aS'0000139'
p70
aS'0000104'
p71
aS'0000267'
p72
aS'0358316'
p73
aS'0000092'
p74
aS'0230666'
p75
aS'0528331'
p76
aS'0732497'
p77
aS'1128572'
p78
aS'0004980'
p79
aS'0005316'
p80
aS'1102891'
p81
aS'0896680'
p82
aS'0780435'
p83
aS'0970606'
p84
aS'0005092'
p85
aS'0005310'
p86
aS'0971017'
p87
aS'0970447'
p88
aS'0912403'
p89
aS'2624549'
p90
aS'3887542'
p91
aS'2857474'
p92
aS'2857081'
p93
aS'0370906'
p94
aS'0391161'
p95
aS'2326037'
p96
aS'3735491'
p97
aS'0593610'
p98
aS'1121631'
p99
aS'2172001'
p100
aS'3296616'
p101
aS'0919798'
p102
asg19
F6.2999999999999998
sg20
I2010
sg21
I70838207
sg22
I4359
sg23
I93
sg24
I10192
ssI10193
(dp103
g3
I415004880
sg4
(lp104
VAnimation
p105
aVAdventure
p106
aVComedy
p107
aVFamily
p108
aVFantasy
p109
asg7
VToy Story 3
p110
sg9
Nsg10
Vtt0435761
p111
sg12
(lp112
S'0881279'
p113
asg15
(lp114
S'0000158'
p115
aS'0000741'
p116
aS'0000349'
p117
aS'0000885'
p118
aS'0725543'
p119
aS'0000474'
p120
aS'0001728'
p121
aS'0001652'
p122
aS'0364680'
p123
aS'0606658'
p124
aS'0072533'
p125
aS'3432684'
p126
aS'0582418'
p127
aS'0163703'
p128
aS'0628599'
p129
aS'0524726'
p130
aS'2356963'
p131
aS'1482048'
p132
aS'0001096'
p133
aS'0015935'
p134
aS'3909367'
p135
aS'1102891'
p136
aS'0307531'
p137
aS'0001372'
p138
aS'0194201'
p139
aS'0682066'
p140
aS'0000155'
p141
aS'0029460'
p142
aS'0000388'
p143
aS'0348562'
p144
aS'0454236'
p145
aS'0902184'
p146
aS'3930096'
p147
aS'3929895'
p148
aS'0932349'
p149
aS'0016141'
p150
aS'0304679'
p151
aS'0363641'
p152
aS'0542706'
p153
aS'0569680'
p154
aS'0628170'
p155
aS'0642601'
p156
aS'0677037'
p157
aS'0710019'
p158
aS'0881279'
p159
aS'1690878'
p160
aS'4162291'
p161
aS'4162125'
p162
aS'4623586'
p163
aS'4162972'
p164
aS'4161439'
p165
aS'4162266'
p166
aS'4161609'
p167
aS'4162068'
p168
aS'4161799'
p169
aS'0881278'
p170
aS'0528802'
p171
aS'0911589'
p172
aS'0919798'
p173
asg19
F8.3000000000000007
sg20
I2010
sg21
I110307189
sg22
I4028
sg23
I103
sg24
I10193
ssI24021
(dp174
g3
I300531751
sg4
(lp175
VAdventure
p176
aVDrama
p177
aVFantasy
p178
aVRomance
p179
asg7
VThe Twilight Saga: Eclipse
p180
sg9
VRated PG-13 for intense sequences of action and violence, and some sensuality
p181
sg10
Vtt1325004
p182
sg12
(lp183
S'1720541'
p184
asg15
(lp185
S'1882152'
p186
aS'0829576'
p187
aS'1500155'
p188
aS'0121605'
p189
aS'2014390'
p190
aS'0447695'
p191
aS'0919616'
p192
aS'1589312'
p193
aS'1717152'
p194
aS'2230865'
p195
aS'0418959'
p196
aS'0703861'
p197
aS'1020124'
p198
aS'0004906'
p199
aS'0714147'
p200
aS'1553725'
p201
aS'1223023'
p202
aS'0397171'
p203
aS'1210124'
p204
aS'3377042'
p205
aS'3376145'
p206
aS'1563736'
p207
aS'2158803'
p208
aS'1247407'
p209
aS'1535188'
p210
aS'1119726'
p211
aS'0083655'
p212
aS'0723339'
p213
aS'1559927'
p214
aS'0614626'
p215
aS'1372589'
p216
aS'3171589'
p217
aS'1244650'
p218
aS'0157294'
p219
aS'3560059'
p220
aS'0272706'
p221
aS'1941271'
p222
aS'1658935'
p223
aS'3025248'
p224
aS'1214436'
p225
aS'0266824'
p226
aS'1080974'
p227
aS'3404934'
p228
aS'2706397'
p229
aS'0698977'
p230
aS'2102545'
p231
aS'2334100'
p232
aS'3922142'
p233
aS'2584253'
p234
aS'1503432'
p235
aS'3269395'
p236
asg19
F4.9000000000000004
sg20
I2010
sg21
I64832191
sg22
I4468
sg23
I124
sg24
I24021
ssI448344
(dp237
g3
I312433331
sg4
(lp238
VDocumentary
p239
asg7
VUltimate Iron Man: The Making of Iron Man 2
p240
sg9
Nsg10
Vtt5298146
p241
sg12
Nsg15
(lp242
S'0269463'
p243
aS'0857620'
p244
aS'0270559'
p245
aS'0000375'
p246
aS'1436246'
p247
aS'2016096'
p248
aS'0508732'
p249
aS'0022285'
p250
aS'4796276'
p251
aS'0000620'
p252
aS'0581406'
p253
aS'0536752'
p254
aS'0195669'
p255
aS'0000332'
p256
aS'0424060'
p257
aS'0957861'
p258
aS'0262389'
p259
aS'1355942'
p260
aS'1329724'
p261
aS'0005377'
p262
aS'0000569'
p263
aS'0788009'
p264
aS'3714223'
p265
aS'8043210'
p266
aS'0090309'
p267
aS'0285047'
p268
aS'1147492'
p269
aS'8043211'
p270
aS'0601635'
p271
aS'0802938'
p272
aS'0837203'
p273
aS'1051814'
p274
aS'0495603'
p275
aS'0079273'
p276
aS'0002201'
p277
aS'0792556'
p278
aS'0603780'
p279
aS'0498278'
p280
asg19
Nsg20
I2010
sg21
I128122480
sg22
I4380
sg23
I86
sg24
I448344
ssI54553
(dp281
g3
I251513985
sg4
(lp282
VAnimation
p283
aVShort
p284
aVComedy
p285
aVFamily
p286
asg7
VMinions: Home Makeover
p287
sg9
Nsg10
Vtt1830633
p288
sg12
(lp289
S'0049633'
p290
aS'1361017'
p291
asg15
(lp292
S'1388927'
p293
aS'3269138'
p294
aS'3220568'
p295
aS'1853544'
p296
asg19
F7.0999999999999996
sg20
I2010
sg21
I56397125
sg22
I3476
sg23
I5
sg24
I54553
ssI12444
(dp297
g3
I295983305
sg4
(lp298
VAdventure
p299
aVFamily
p300
aVFantasy
p301
aVMystery
p302
asg7
VHarry Potter and the Deathly Hallows: Part 1
p303
sg9
VRated PG-13 for some sequences of intense action violence, frightening images and brief sensuality
p304
sg10
Vtt0926084
p305
sg12
(lp306
S'0946734'
p307
asg15
(lp308
S'0631490'
p309
aS'0914612'
p310
aS'0341743'
p311
aS'0577982'
p312
aS'0705356'
p313
aS'0910278'
p314
aS'0942247'
p315
aS'0342488'
p316
aS'0446432'
p317
aS'0265610'
p318
aS'0789716'
p319
aS'0000614'
p320
aS'0681949'
p321
aS'0000146'
p322
aS'0000307'
p323
aS'0567031'
p324
aS'0005042'
p325
aS'0271657'
p326
aS'0001758'
p327
aS'1113863'
p328
aS'0611932'
p329
aS'0377844'
p330
aS'0048076'
p331
aS'3081528'
p332
aS'2993924'
p333
aS'0408591'
p334
aS'1782394'
p335
aS'1118408'
p336
aS'1802200'
p337
aS'0833380'
p338
aS'3081940'
p339
aS'2794798'
p340
aS'0768365'
p341
aS'0789077'
p342
aS'1371443'
p343
aS'1224410'
p344
aS'4168837'
p345
aS'0457078'
p346
aS'0002091'
p347
aS'0752379'
p348
aS'0001059'
p349
aS'0322407'
p350
aS'0962359'
p351
aS'0962360'
p352
aS'0931247'
p353
aS'0364711'
p354
aS'0511580'
p355
aS'1727304'
p356
aS'0993242'
p357
aS'1164730'
p358
aS'0000667'
p359
aS'0000457'
p360
aS'0209428'
p361
aS'2121541'
p362
aS'0406975'
p363
aS'0316702'
p364
aS'1604904'
p365
aS'0564402'
p366
aS'0507535'
p367
aS'1376997'
p368
aS'0614912'
p369
aS'1701576'
p370
aS'1054425'
p371
aS'2238815'
p372
aS'2877285'
p373
aS'2728165'
p374
aS'2872264'
p375
aS'0378830'
p376
aS'2810906'
p377
aS'2815169'
p378
aS'1648520'
p379
aS'1327430'
p380
aS'2857909'
p381
aS'2906885'
p382
aS'1715136'
p383
aS'0001767'
p384
aS'0641244'
p385
aS'0722560'
p386
aS'0602941'
p387
aS'0429363'
p388
aS'0860724'
p389
aS'1264590'
p390
aS'0353579'
p391
aS'0693431'
p392
aS'0444451'
p393
aS'0219329'
p394
aS'0281448'
p395
aS'0384164'
p396
aS'0784884'
p397
aS'2570429'
p398
aS'0235074'
p399
aS'0712628'
p400
aS'0813893'
p401
aS'0001669'
p402
aS'0126250'
p403
aS'0499270'
p404
aS'1717183'
p405
aS'0001116'
p406
aS'3496103'
p407
aS'1089027'
p408
aS'1948712'
p409
aS'4924191'
p410
aS'1579713'
p411
aS'4622893'
p412
aS'2126940'
p413
aS'3563886'
p414
aS'2435252'
p415
aS'2989469'
p416
aS'4413907'
p417
aS'6549758'
p418
aS'1701596'
p419
aS'2788601'
p420
aS'3506359'
p421
aS'3894361'
p422
aS'4126525'
p423
aS'2269396'
p424
aS'2408967'
p425
aS'2339366'
p426
aS'1838911'
p427
aS'1889111'
p428
aS'1648506'
p429
asg19
F7.7000000000000002
sg20
I2010
sg21
I125017372
sg22
I4125
sg23
I146
sg24
I12444
ssI47389
(dp430
g3
I200821936
sg4
(lp431
VDrama
p432
aVRomance
p433
aVWar
p434
asg7
VTangled Up in Blue
p435
sg9
Nsg10
Vtt1465509
p436
sg12
(lp437
S'3398984'
p438
asg15
(lp439
S'2316866'
p440
aS'3286052'
p441
aS'2492304'
p442
aS'3398984'
p443
aS'4109608'
p444
aS'2982565'
p445
aS'4110621'
p446
aS'4109639'
p447
aS'3559848'
p448
asg19
F6.7000000000000002
sg20
I2010
sg21
I48767052
sg22
I3603
sg23
I85
sg24
I47389
ss.